(dp1
S'16079'
p2
(F-115.891114093732
F47.351712600546897
tp3
sS'16073'
p4
(F-116.16995578220499
F42.581529294667803
tp5
sS'16071'
p6
(F-112.539610792056
F42.194879210276397
tp7
sS'16077'
p8
(F-112.840641744281
F42.693655330921104
tp9
sS'16075'
p10
(F-116.76085660923199
F44.006737645473699
tp11
sS'06115'
p12
(F-121.351266073345
F39.269006931629796
tp13
sS'06111'
p14
(F-119.078227345925
F34.471590165852
tp15
sS'06113'
p16
(F-121.901561121079
F38.686605525512
tp17
sS'01129'
p18
(F-88.207857040329998
F31.407628826596099
tp19
sS'01087'
p20
(F-85.692654688359397
F32.3859586678266
tp21
sS'08115'
p22
(F-102.35182387974599
F40.875916162761698
tp23
sS'40147'
p24
(F-95.904360467953097
F36.715236183522897
tp25
sS'51069'
p26
(F-78.2606645523407
F39.2038792039938
tp27
sS'39109'
p28
(F-84.228847004002404
F40.053464043504903
tp29
sS'51065'
p30
(F-78.277574389341595
F37.841891561742401
tp31
sS'39105'
p32
(F-82.022866271517003
F39.082226176544701
tp33
sS'19157'
p34
(F-92.531455057057997
F41.6864421213848
tp35
sS'39107'
p36
(F-84.629372431017302
F40.539947121567501
tp37
sS'51061'
p38
(F-77.809342346155901
F38.738618570125098
tp39
sS'39101'
p40
(F-83.160872876186104
F40.5871900763415
tp41
sS'19153'
p42
(F-93.573532255032603
F41.685499220975899
tp43
sS'01083'
p44
(F-86.981397422733806
F34.8100956793797
tp45
sS'53003'
p46
(F-117.203053546677
F46.191872177208303
tp47
sS'01081'
p48
(F-85.355470925425195
F32.601145913231697
tp49
sS'22009'
p50
(F-92.0013845926606
F31.076237502856898
tp51
sS'01121'
p52
(F-86.165886738033606
F33.380082185281999
tp53
sS'22001'
p54
(F-92.411984078744894
F30.290539491741399
tp55
sS'22003'
p56
(F-92.827918620921096
F30.6529191961823
tp57
sS'22005'
p58
(F-90.911306796368805
F30.203543214068201
tp59
sS'01123'
p60
(F-85.797498435216895
F32.862377456876096
tp61
sS'22007'
p62
(F-91.062583557844206
F29.900778503583101
tp63
sS'06029'
p64
(F-118.729917801951
F35.342865577747602
tp65
sS'06021'
p66
(F-122.391999103068
F39.598201407150803
tp67
sS'01125'
p68
(F-87.525126503071903
F33.2895552906772
tp69
sS'06023'
p70
(F-123.87562892851901
F40.699296751212103
tp71
sS'06025'
p72
(F-115.365351150861
F33.039512073426401
tp73
sS'06027'
p74
(F-117.410745567666
F36.511112092286503
tp75
sS'27173'
p76
(F-95.868362130980998
F44.716249635721098
tp77
sS'27171'
p78
(F-93.963046171819698
F45.1739407843192
tp79
sS'51600'
p80
(F-77.299953388628794
F38.852969225629003
tp81
sS'21101'
p82
(F-87.5730265660968
F37.795958528261203
tp83
sS'21103'
p84
(F-85.118915951876602
F38.448466460770902
tp85
sS'21105'
p86
(F-88.976143842692693
F36.678130226996103
tp87
sS'21107'
p88
(F-87.540836248671894
F37.308839397012697
tp89
sS'21109'
p90
(F-84.005754013753304
F37.419766159160702
tp91
sS'32013'
p92
(F-118.112004636736
F41.406837921033897
tp93
sS'32011'
p94
(F-116.268580741234
F39.983864451000201
tp95
sS'51840'
p96
(F-78.174519995940798
F39.173390051321697
tp97
sS'32017'
p98
(F-114.877531343155
F37.643343575959797
tp99
sS'32015'
p100
(F-117.03802507412
F39.9336666485477
tp101
sS'32019'
p102
(F-119.18912060513701
F39.020288513856599
tp103
sS'26157'
p104
(F-83.417036284728894
F43.464663670715503
tp105
sS'42055'
p106
(F-77.721281795094001
F39.927404601558401
tp107
sS'26155'
p108
(F-84.146729198657695
F42.953737834275202
tp109
sS'42057'
p110
(F-78.112685310277698
F39.9253559281116
tp111
sS'26153'
p112
(F-86.199623703824997
F46.196547811238403
tp113
sS'42051'
p114
(F-79.647347859185999
F39.9198907533602
tp115
sS'26151'
p116
(F-82.820135952173999
F43.423596564986703
tp117
sS'42053'
p118
(F-79.236021437370496
F41.512993204295398
tp119
sS'12015'
p120
(F-81.912256852029202
F26.905497821842999
tp121
sS'12017'
p122
(F-82.478847062757893
F28.8491708138293
tp123
sS'12011'
p124
(F-80.487129196595404
F26.152319059495401
tp125
sS'42059'
p126
(F-80.222920103252804
F39.853835643716401
tp127
sS'12013'
p128
(F-85.197194327826907
F30.406027954405001
tp129
sS'51115'
p130
(F-76.343648068069101
F37.435390572260303
tp131
sS'46009'
p132
(F-97.884595017643704
F42.988464856237798
tp133
sS'51111'
p134
(F-78.240555521896994
F36.946218972829698
tp135
sS'51113'
p136
(F-78.279247096263902
F38.413709644388099
tp137
sS'46003'
p138
(F-98.561537270988694
F43.718003275475901
tp139
sS'51119'
p140
(F-76.569838521293903
F37.630295697265197
tp141
sS'46005'
p142
(F-98.278118998414698
F44.414475305679503
tp143
sS'17031'
p144
(F-87.816707869889697
F41.840031066081899
tp145
sS'17033'
p146
(F-87.759634861767694
F39.0027254502875
tp147
sS'17035'
p148
(F-88.2402209763017
F39.273305615557597
tp149
sS'05139'
p150
(F-92.597243502742899
F33.171292860306004
tp151
sS'05099'
p152
(F-93.307183043071305
F33.663943417801804
tp153
sS'05137'
p154
(F-92.156702717164194
F35.859883695261203
tp155
sS'05135'
p156
(F-91.4798575924587
F36.1611421405036
tp157
sS'05133'
p158
(F-94.241175548606293
F33.997170268088702
tp159
sS'05131'
p160
(F-94.274178487639205
F35.199659467356497
tp161
sS'26023'
p162
(F-85.059010396964993
F41.916127852817603
tp163
sS'05003'
p164
(F-91.768453721482103
F33.191210208495001
tp165
sS'26021'
p166
(F-86.412267600671001
F41.954677853300304
tp167
sS'05001'
p168
(F-91.374910942808995
F34.290807566823297
tp169
sS'26027'
p170
(F-85.993489737154803
F41.915364144127999
tp171
sS'05007'
p172
(F-94.256204790135897
F36.338724538215203
tp173
sS'53029'
p174
(F-122.566228295172
F48.157376030346803
tp175
sS'05005'
p176
(F-92.336947159937907
F36.287208202827102
tp177
sS'53027'
p178
(F-123.773344643249
F47.150281859776101
tp179
sS'12123'
p180
(F-83.603518799116102
F30.047016557097098
tp181
sS'05009'
p182
(F-93.091533241779899
F36.308590723545002
tp183
sS'12125'
p184
(F-82.371432916822201
F30.043855133663001
tp185
sS'53021'
p186
(F-118.89899692894301
F46.534754250895901
tp187
sS'20153'
p188
(F-101.07585003584001
F39.785188603453399
tp189
sS'01025'
p190
(F-87.830805667015994
F31.6766865954529
tp191
sS'01027'
p192
(F-85.860578472728506
F33.269024320045602
tp193
sS'01021'
p194
(F-86.718798937181703
F32.847863828344401
tp195
sS'01023'
p196
(F-88.263179688225094
F32.019771579917197
tp197
sS'01029'
p198
(F-85.518813317316102
F33.674518244852898
tp199
sS'37009'
p200
(F-81.5003385858233
F36.434173548460898
tp201
sS'28107'
p202
(F-89.950562391508299
F34.363908547293597
tp203
sS'37007'
p204
(F-80.102692318107202
F34.973830162097499
tp205
sS'37005'
p206
(F-81.127221017894598
F36.491360114774203
tp207
sS'37003'
p208
(F-81.177016085988996
F35.921041651996397
tp209
sS'37001'
p210
(F-79.399471800680104
F36.044051212031
tp211
sS'12009'
p212
(F-80.732269083231103
F28.293719676880698
tp213
sS'48365'
p214
(F-94.3055877641915
F32.162354139890603
tp215
sS'36029'
p216
(F-78.732315059030995
F42.763952584598897
tp217
sS'48361'
p218
(F-93.893888117779298
F30.121304638414301
tp219
sS'48363'
p220
(F-98.313015316744995
F32.753152774158998
tp221
sS'19159'
p222
(F-94.243984721472302
F40.735171646530901
tp223
sS'42127'
p224
(F-75.303270674957403
F41.648730770901302
tp225
sS'42121'
p226
(F-79.7579529392045
F41.400990383104897
tp227
sS'36025'
p228
(F-74.966468404688399
F42.198068697293401
tp229
sS'42125'
p230
(F-80.248240387932299
F40.189404536333299
tp231
sS'48235'
p232
(F-100.982390101118
F31.303914339229099
tp233
sS'48233'
p234
(F-101.35467984829801
F35.840037368475301
tp235
sS'19155'
p236
(F-95.542286678889099
F41.336621308019097
tp237
sS'48149'
p238
(F-96.919779159316604
F29.8767703544864
tp239
sS'48419'
p240
(F-94.144960896668593
F31.7924180293817
tp241
sS'48145'
p242
(F-96.935864293772497
F31.253272239968599
tp243
sS'48231'
p244
(F-96.085476785209494
F33.123584050500803
tp245
sS'51067'
p246
(F-79.881036222248298
F36.991941793823202
tp247
sS'48411'
p248
(F-98.817586101151903
F31.155201768687899
tp249
sS'01111'
p250
(F-85.459128742899395
F33.293784781621497
tp251
sS'01113'
p252
(F-85.184924551702096
F32.288393373434197
tp253
sS'01115'
p254
(F-86.314705489357394
F33.715695367122201
tp255
sS'01117'
p256
(F-86.660665460194195
F33.2642786210899
tp257
sS'01119'
p258
(F-88.198848288746703
F32.591054942129702
tp259
sS'45061'
p260
(F-80.254495704981807
F34.163323162509599
tp261
sS'45063'
p262
(F-81.272192536430495
F33.902320211432503
tp263
sS'45065'
p264
(F-82.309873754070196
F33.899576816464602
tp265
sS'45067'
p266
(F-79.362496031315402
F34.080081190764503
tp267
sS'17159'
p268
(F-88.085097241571802
F38.712373396398696
tp269
sS'45069'
p270
(F-79.678612848331397
F34.601979638071001
tp271
sS'13051'
p272
(F-81.132835304756895
F32.004215542098699
tp273
sS'13057'
p274
(F-84.476211166648397
F34.243938206986002
tp275
sS'13181'
p276
(F-82.451153433929207
F33.793644747067198
tp277
sS'01045'
p278
(F-85.610999442589602
F31.4318010936944
tp279
sS'40073'
p280
(F-97.942093671207701
F35.945394608726197
tp281
sS'37177'
p282
(F-76.208038703652704
F35.817584346890101
tp283
sS'37175'
p284
(F-82.798258290951296
F35.202103573098299
tp285
sS'37173'
p286
(F-83.492735097664806
F35.486684478170602
tp287
sS'37171'
p288
(F-80.687520365129302
F36.414663871510299
tp289
sS'37179'
p290
(F-80.530714609141498
F34.988413023657699
tp291
sS'54085'
p292
(F-81.062978427563394
F39.178258505095698
tp293
sS'08051'
p294
(F-107.03162259300601
F38.666767932247197
tp295
sS'54081'
p296
(F-81.248649412875594
F37.771364614321698
tp297
sS'08055'
p298
(F-104.96061944578599
F37.684676376992101
tp299
sS'08059'
p300
(F-105.25052062986499
F39.586422556555902
tp301
sS'54089'
p302
(F-80.858559347032795
F37.6558559198712
tp303
sS'31129'
p304
(F-98.047192484555197
F40.176386904005902
tp305
sS'31127'
p306
(F-95.849834103337102
F40.387649154944803
tp307
sS'31125'
p308
(F-97.992203981472898
F41.397323623045203
tp309
sS'31123'
p310
(F-103.010641239824
F41.715997185333798
tp311
sS'31121'
p312
(F-98.038020480748202
F41.169039662285499
tp313
sS'18149'
p314
(F-86.647641629648504
F41.280934318539899
tp315
sS'37125'
p316
(F-79.481307759568196
F35.310706829112704
tp317
sS'18141'
p318
(F-86.289873615535996
F41.6166605275248
tp319
sS'18143'
p320
(F-85.747480007426006
F38.685076995820197
tp321
sS'18145'
p322
(F-85.791687389751004
F39.523703338611
tp323
sS'18147'
p324
(F-87.0077107830258
F38.014186803995798
tp325
sS'37127'
p326
(F-77.986470604588902
F35.967207910941497
tp327
sS'19087'
p328
(F-91.544539115410998
F40.987967496149501
tp329
sS'37121'
p330
(F-82.163465545533498
F36.013326066426899
tp331
sS'29109'
p332
(F-93.832958887529799
F37.106385555754599
tp333
sS'29101'
p334
(F-93.806414740898205
F38.744059689863299
tp335
sS'29103'
p336
(F-92.148075306828801
F40.128255681574501
tp337
sS'29025'
p338
(F-93.982700105242401
F39.655745484677297
tp339
sS'29105'
p340
(F-92.590338403206601
F37.658322869938601
tp341
sS'29107'
p342
(F-93.7855032952328
F39.065554168177201
tp343
sS'19181'
p344
(F-93.561358452117901
F41.334369396344599
tp345
sS'55111'
p346
(F-89.948412526093804
F43.426832299430799
tp347
sS'55113'
p348
(F-91.144538850764903
F45.879980447324897
tp349
sS'55115'
p350
(F-88.765425709358297
F44.789144569032899
tp351
sS'55117'
p352
(F-87.945366549107106
F43.721175848296397
tp353
sS'48303'
p354
(F-101.820524617999
F33.610210761811402
tp355
sS'55119'
p356
(F-90.501281498269506
F45.211562708194499
tp357
sS'31019'
p358
(F-99.074968449833307
F40.8551530267817
tp359
sS'46013'
p360
(F-98.351597847002594
F45.589790741170503
tp361
sS'05117'
p362
(F-91.552796739211303
F34.82979395892
tp363
sS'48307'
p364
(F-99.347538055240193
F31.198875795662602
tp365
sS'05113'
p366
(F-94.228096608014695
F34.485908210115397
tp367
sS'47035'
p368
(F-84.998369736368105
F35.950375621999001
tp369
sS'47037'
p370
(F-86.7849158168884
F36.169470203020502
tp371
sS'47031'
p372
(F-86.074750387123203
F35.490621411983199
tp373
sS'47033'
p374
(F-89.139515842117106
F35.813542331700603
tp375
sS'06109'
p376
(F-119.954753661826
F38.027587432079102
tp377
sS'06107'
p378
(F-118.80048851101201
F36.2201653360015
tp379
sS'06105'
p380
(F-123.11264119269499
F40.650699211790098
tp381
sS'47039'
p382
(F-88.108793427417396
F35.603048910891999
tp383
sS'06103'
p384
(F-122.234058542372
F40.125625237641103
tp385
sS'06101'
p386
(F-121.694828736825
F39.034539133196297
tp387
sS'46137'
p388
(F-101.66580196445
F44.980414063373203
tp389
sS'55029'
p390
(F-87.339669697671496
F44.917556504745697
tp391
sS'51079'
p392
(F-78.466850119850506
F38.297618474889902
tp393
sS'55025'
p394
(F-89.418352216183905
F43.067424162264402
tp395
sS'51077'
p396
(F-81.224992848041595
F36.656615388696899
tp397
sS'55027'
p398
(F-88.707523820860203
F43.416295020867103
tp399
sS'51075'
p400
(F-77.916524426673604
F37.7220644452984
tp401
sS'39175'
p402
(F-83.304376021218403
F40.842379825400798
tp403
sS'51073'
p404
(F-76.543434728805593
F37.4159582487205
tp405
sS'55023'
p406
(F-90.931044219614407
F43.239471264615702
tp407
sS'19141'
p408
(F-95.6249191080109
F43.0837638503804
tp409
sS'54083'
p410
(F-79.875795528425996
F38.7747298226288
tp411
sS'22019'
p412
(F-93.358011360559601
F30.229274085672799
tp413
sS'22013'
p414
(F-93.055979961308594
F32.347169983165699
tp415
sS'22011'
p416
(F-93.343368552104707
F30.6484586602893
tp417
sS'22017'
p418
(F-93.882331315390402
F32.5800721794513
tp419
sS'48431'
p420
(F-101.050079010422
F31.827791281097699
tp421
sS'46129'
p422
(F-100.03154052202601
F45.4299508314935
tp423
sS'06039'
p424
(F-119.762674777538
F37.217979314399699
tp425
sS'06033'
p426
(F-122.753185039781
F39.099614974661201
tp427
sS'06031'
p428
(F-119.815551542514
F36.0753446820259
tp429
sS'06037'
p430
(F-118.217034762537
F34.358916471887802
tp431
sS'06035'
p432
(F-120.594316191242
F40.673587596175203
tp433
sS'27143'
p434
(F-94.232135717194495
F44.579497375712101
tp435
sS'16065'
p436
(F-111.65935001115299
F43.784200617123197
tp437
sS'39007'
p438
(F-80.748302114126005
F41.707553565816902
tp439
sS'16067'
p440
(F-113.63754552985
F42.854324233529198
tp441
sS'39001'
p442
(F-83.472030053770894
F38.845614924605698
tp443
sS'16061'
p444
(F-116.42625405129399
F46.237026817161698
tp445
sS'27145'
p446
(F-94.613021313234896
F45.552142409584498
tp447
sS'16063'
p448
(F-114.13830407388799
F43.0024196294437
tp449
sS'51510'
p450
(F-77.086095200083506
F38.818415669539803
tp451
sS'51610'
p452
(F-77.175081285905605
F38.884643489450298
tp453
sS'51530'
p454
(F-79.356525871854799
F37.731581848802698
tp455
sS'39009'
p456
(F-82.045205792631904
F39.333888426445398
tp457
sS'16069'
p458
(F-116.750237266952
F46.326730602218298
tp459
sS'21113'
p460
(F-84.580938888228602
F37.872036865592698
tp461
sS'21111'
p462
(F-85.659458225811804
F38.1871329614291
tp463
sS'21117'
p464
(F-84.533336635929004
F38.933402622001999
tp465
sS'21115'
p466
(F-82.831519381528594
F37.846642201344103
tp467
sS'56043'
p468
(F-107.68282112003
F43.904971294172597
tp469
sS'21119'
p470
(F-82.954141524545307
F37.354047274086497
tp471
sS'56045'
p472
(F-104.567643589458
F43.840399368338097
tp473
sS'32009'
p474
(F-117.632282214922
F37.784615279315801
tp475
sS'32005'
p476
(F-119.616389782976
F38.9121922194185
tp477
sS'32007'
p478
(F-115.35776565989801
F41.1458086048114
tp479
sS'32001'
p480
(F-118.335850947133
F39.580919782512197
tp481
sS'32003'
p482
(F-115.01353637001399
F36.215241100339298
tp483
sS'42021'
p484
(F-78.713719346626505
F40.495271383025603
tp485
sS'26141'
p486
(F-83.917618634986994
F45.340183571207497
tp487
sS'42023'
p488
(F-78.203880402635406
F41.436729365569001
tp489
sS'26143'
p490
(F-84.611552468254402
F44.335553380095902
tp491
sS'42025'
p492
(F-75.708813382747906
F40.918175637663303
tp493
sS'46011'
p494
(F-96.7904546700737
F44.369666158267698
tp495
sS'42027'
p496
(F-77.819944662831105
F40.919306227998497
tp497
sS'26147'
p498
(F-82.680540090728698
F42.934066809958502
tp499
sS'42029'
p500
(F-75.748484207730797
F39.973091121339799
tp501
sS'26149'
p502
(F-85.527760852071594
F41.914446129906899
tp503
sS'12005'
p504
(F-85.620250282658404
F30.2652108329717
tp505
sS'46019'
p506
(F-103.507935466519
F44.905777960811101
tp507
sS'12001'
p508
(F-82.357723226018294
F29.674752901668899
tp509
sS'51107'
p510
(F-77.6357355149011
F39.0906578469179
tp511
sS'51105'
p512
(F-83.128482523617606
F36.705426463097503
tp513
sS'51103'
p514
(F-76.463226176096398
F37.734520681266901
tp515
sS'51101'
p516
(F-77.088397724303107
F37.706617912136799
tp517
sS'51109'
p518
(F-77.9629704590389
F37.978200155219199
tp519
sS'05109'
p520
(F-93.656325814277807
F34.163518462031398
tp521
sS'05103'
p522
(F-92.881928750539302
F33.593358655179699
tp523
sS'05101'
p524
(F-93.217866460072102
F35.9199723376869
tp525
sS'05107'
p526
(F-90.848060528452194
F34.428236552406801
tp527
sS'05105'
p528
(F-92.931456825945901
F34.947364326474698
tp529
sS'13289'
p530
(F-83.427076117291307
F32.667199448053601
tp531
sS'13287'
p532
(F-83.624083210197796
F31.716381185122401
tp533
sS'13285'
p534
(F-85.028365067697294
F33.033539700316801
tp535
sS'13283'
p536
(F-82.567284639970694
F32.403874683808603
tp537
sS'13281'
p538
(F-83.737298875254695
F34.916637292187701
tp539
sS'30061'
p540
(F-114.998461969134
F47.147296383117101
tp541
sS'18137'
p542
(F-85.262376902287798
F39.103474400409397
tp543
sS'48127'
p544
(F-99.756655037611196
F28.422556118876301
tp545
sS'53039'
p546
(F-120.789183743987
F45.873803039044802
tp547
sS'29155'
p548
(F-89.785398194565005
F36.211379273924898
tp549
sS'26039'
p550
(F-84.610251946944402
F44.683651240211603
tp551
sS'05039'
p552
(F-92.654424848833102
F33.969819416329997
tp553
sS'49047'
p554
(F-109.51862030939
F40.124762901682203
tp555
sS'05037'
p556
(F-90.771216236289405
F35.295709387980303
tp557
sS'12133'
p558
(F-85.665323188829902
F30.610590986040101
tp559
sS'05035'
p560
(F-90.3088405857211
F35.207940927111402
tp561
sS'26037'
p562
(F-84.601517649808002
F42.943662053907097
tp563
sS'05033'
p564
(F-94.242822405131605
F35.589085479637198
tp565
sS'53035'
p566
(F-122.67206026914999
F47.613381907831098
tp567
sS'05031'
p568
(F-90.632828544414394
F35.830788925666504
tp569
sS'53037'
p570
(F-120.67973886137599
F47.124178213282399
tp571
sS'46097'
p572
(F-97.610196179043101
F44.021952414391599
tp573
sS'48229'
p574
(F-105.386466595147
F31.456236794034599
tp575
sS'20089'
p576
(F-98.2183312480837
F39.784738485147003
tp577
sS'20087'
p578
(F-95.383439049630596
F39.235762846169202
tp579
sS'20085'
p580
(F-95.793669155865501
F39.416823086834597
tp581
sS'29151'
p582
(F-91.861826530173303
F38.460377292921997
tp583
sS'20083'
p584
(F-99.897924274521401
F38.087484648224702
tp585
sS'48223'
p586
(F-95.563947934305702
F33.1495613067382
tp587
sS'46091'
p588
(F-97.598643601647396
F45.758555246838696
tp589
sS'01051'
p590
(F-86.149159155804696
F32.5966465849027
tp591
sS'01053'
p592
(F-87.161579620266494
F31.126136166234001
tp593
sS'01055'
p594
(F-86.034759584341401
F34.045259572457397
tp595
sS'01057'
p596
(F-87.738858543621006
F33.721222945675997
tp597
sS'30069'
p598
(F-108.250197496468
F47.117542104446002
tp599
sS'01059'
p600
(F-87.843735532461096
F34.441691985610902
tp601
sS'49041'
p602
(F-111.804466172872
F38.747774911285298
tp603
sS'36017'
p604
(F-75.611591995822494
F42.493506617949201
tp605
sS'37019'
p606
(F-78.237601214409594
F34.0710894771683
tp607
sS'36015'
p608
(F-76.760025446367806
F42.141256073868298
tp609
sS'36013'
p610
(F-79.366341411312007
F42.228166659220598
tp611
sS'36011'
p612
(F-76.554507130748206
F42.917497466322999
tp613
sS'13193'
p614
(F-84.042553960951693
F32.357675555145399
tp615
sS'55017'
p616
(F-91.279844603004605
F45.069409217242097
tp617
sS'13191'
p618
(F-81.408523117573395
F31.496734109223301
tp619
sS'37013'
p620
(F-76.8596948565351
F35.4927788839424
tp621
sS'13197'
p622
(F-84.524662698254502
F32.353397738109599
tp623
sS'37015'
p624
(F-76.978563544133394
F36.066101389030102
tp625
sS'36019'
p626
(F-73.678165111774206
F44.746180610142197
tp627
sS'37017'
p628
(F-78.563177444110494
F34.6143020973539
tp629
sS'48311'
p630
(F-98.567854215020205
F28.352683191869801
tp631
sS'48313'
p632
(F-95.928424411959199
F30.9655436473093
tp633
sS'48315'
p634
(F-94.357173719875604
F32.797986489196902
tp635
sS'48317'
p636
(F-101.951271842002
F32.305992210135699
tp637
sS'48319'
p638
(F-99.226145015586297
F30.717724439370802
tp639
sS'48139'
p640
(F-96.794508128117499
F32.348425039618697
tp641
sS'48429'
p642
(F-98.836183957821603
F32.735871630911298
tp643
sS'48131'
p644
(F-98.508870993286095
F27.681382296634698
tp645
sS'48421'
p646
(F-101.893436117664
F36.2777200868912
tp647
sS'48135'
p648
(F-102.54288059041301
F31.869186296725101
tp649
sS'48425'
p650
(F-97.774360016909299
F32.222253063813703
tp651
sS'47175'
p652
(F-85.452630979838304
F35.6959714476207
tp653
sS'13067'
p654
(F-84.5766787126867
F33.941461567810798
tp655
sS'13179'
p656
(F-81.494730921717604
F31.828091147420999
tp657
sS'13065'
p658
(F-82.706249681279104
F30.914994739433499
tp659
sS'13063'
p660
(F-84.357643105638303
F33.541886843489102
tp661
sS'13061'
p662
(F-84.980090374510695
F31.626233646593501
tp663
sS'47069'
p664
(F-88.993073960415003
F35.206843093541103
tp665
sS'13069'
p666
(F-82.849161801103705
F31.549317978419001
tp667
sS'13265'
p668
(F-82.878764141246194
F33.566137024052502
tp669
sS'13267'
p670
(F-82.058127563640198
F32.045798527559903
tp671
sS'13261'
p672
(F-84.196988220085203
F32.039941923125298
tp673
sS'13263'
p674
(F-84.533009304473296
F32.699499039171698
tp675
sS'45091'
p676
(F-81.184411420989093
F34.9747440338923
tp677
sS'13271'
p678
(F-82.939015088394598
F31.929804555580098
tp679
sS'40089'
p680
(F-94.771267499021505
F34.115419810797697
tp681
sS'48047'
p682
(F-98.218741567867994
F27.031583036541001
tp683
sS'48217'
p684
(F-97.132428749028193
F31.9906769266303
tp685
sS'48041'
p686
(F-96.302386480079903
F30.660806564974301
tp687
sS'48043'
p688
(F-103.25173892366099
F29.811939933060302
tp689
sS'40081'
p690
(F-96.880917902335497
F35.702963318531502
tp691
sS'12019'
p692
(F-81.857858618306295
F29.983058555880099
tp693
sS'40083'
p694
(F-97.443300628050295
F35.9193241855127
tp695
sS'48049'
p696
(F-98.999780119209802
F31.7742504023043
tp697
sS'40087'
p698
(F-97.444298023269198
F35.009332716364
tp699
sS'20065'
p700
(F-99.883226450611303
F39.349722868215302
tp701
sS'37161'
p702
(F-81.920070884028306
F35.402261119063603
tp703
sS'20067'
p704
(F-101.30802909250799
F37.562264195491402
tp705
sS'37163'
p706
(F-78.371511302336202
F34.991621037731797
tp707
sS'20061'
p708
(F-96.752544117374498
F39.002363650500499
tp709
sS'37165'
p710
(F-79.480408027509398
F34.840907124932102
tp711
sS'20063'
p712
(F-100.482975636435
F38.9160856338749
tp713
sS'37167'
p714
(F-80.250931377629996
F35.311991631372997
tp715
sS'37169'
p716
(F-80.239580985670798
F36.401917667442703
tp717
sS'20069'
p718
(F-100.43788360072899
F37.738182027561798
tp719
sS'48351'
p720
(F-93.744806288062804
F30.786219848723601
tp721
sS'08069'
p722
(F-105.461146860375
F40.6663865881427
tp723
sS'08067'
p724
(F-107.843329475122
F37.2865542054397
tp725
sS'08065'
p726
(F-106.344777727787
F39.202496512263799
tp727
sS'13279'
p728
(F-82.331215910925195
F32.121612417155802
tp729
sS'08063'
p730
(F-102.60294831885599
F39.305482121764499
tp731
sS'08061'
p732
(F-102.740254280255
F38.432678425423397
tp733
sS'31119'
p734
(F-97.600763952974404
F41.916695092791599
tp735
sS'31113'
p736
(F-100.48284317543801
F41.566503498844099
tp737
sS'31111'
p738
(F-100.74529653003
F41.047739856116898
tp739
sS'31117'
p740
(F-101.060517609119
F41.568151219907001
tp741
sS'31115'
p742
(F-99.454383347974598
F41.913853655187701
tp743
sS'08085'
p744
(F-108.26933845128799
F38.402183076490303
tp745
sS'19037'
p746
(F-92.317667751246603
F43.060057973842198
tp747
sS'08087'
p748
(F-103.809757177557
F40.262655162891498
tp749
sS'18159'
p750
(F-86.051851468527104
F40.311344315135997
tp751
sS'08081'
p752
(F-108.20743545055601
F40.618390945024402
tp753
sS'26159'
p754
(F-86.018944954992705
F42.251309387426701
tp755
sS'08083'
p756
(F-108.596577090791
F37.338562427399701
tp757
sS'54053'
p758
(F-82.026563369872704
F38.769721069920401
tp759
sS'18151'
p760
(F-85.000859168456799
F41.6438918959023
tp761
sS'08089'
p762
(F-103.716452296295
F37.902592442827803
tp763
sS'18157'
p764
(F-86.894059291277998
F40.388619793789097
tp765
sS'18155'
p766
(F-85.036984243713306
F38.826180353282297
tp767
sS'19191'
p768
(F-91.843666337744395
F43.290622733117701
tp769
sS'51117'
p770
(F-78.362744984603097
F36.680355976839898
tp771
sS'28077'
p772
(F-90.107001425938705
F31.5501783723664
tp773
sS'29119'
p774
(F-94.348338149160398
F36.628689974315797
tp775
sS'29113'
p776
(F-90.960068628045406
F39.058032091826099
tp777
sS'29111'
p778
(F-91.722110850022503
F40.096870779383401
tp779
sS'29117'
p780
(F-93.548265010788896
F39.782122761338599
tp781
sS'29115'
p782
(F-93.107197958631701
F39.870207324490799
tp783
sS'51033'
p784
(F-77.3469786612213
F38.026832139060097
tp785
sS'27039'
p786
(F-92.862049625405206
F44.022604047751003
tp787
sS'51031'
p788
(F-79.096404400907005
F37.205613642535099
tp789
sS'54059'
p790
(F-82.134633023587099
F37.726453428751803
tp791
sS'51036'
p792
(F-77.062219868340904
F37.356712558759398
tp793
sS'19107'
p794
(F-92.178639029310105
F41.336454082061799
tp795
sS'55103'
p796
(F-90.429482651298798
F43.375636298808097
tp797
sS'55101'
p798
(F-88.061088316221102
F42.747486428076598
tp799
sS'55107'
p800
(F-91.133141058755996
F45.475137173571902
tp801
sS'55105'
p802
(F-89.071579167412594
F42.671223560807597
tp803
sS'19193'
p804
(F-96.044792917035593
F42.389702660357798
tp805
sS'46007'
p806
(F-101.66396893028799
F43.194981668027403
tp807
sS'55109'
p808
(F-92.452792227107594
F45.034070961690503
tp809
sS'55069'
p810
(F-89.734645202183501
F45.337441051777802
tp811
sS'40099'
p812
(F-97.067906802907402
F34.482341447367901
tp813
sS'04012'
p814
(F-113.98132110605199
F33.729249083384403
tp815
sS'47025'
p816
(F-83.660418922423403
F36.485857157875799
tp817
sS'47023'
p818
(F-88.6134545946543
F35.421748274937201
tp819
sS'47021'
p820
(F-87.086776374864996
F36.261149506282898
tp821
sS'47029'
p822
(F-83.121182586272795
F35.925437950984502
tp823
sS'04011'
p824
(F-109.24013441255801
F33.215220834842
tp825
sS'19195'
p826
(F-93.260843812746899
F43.377381801302398
tp827
sS'17037'
p828
(F-88.770310719274605
F41.893533642705599
tp829
sS'51049'
p830
(F-78.244965094420806
F37.512110534705002
tp831
sS'39169'
p832
(F-81.888034786538697
F40.828878575744099
tp833
sS'55039'
p834
(F-88.488255592722595
F43.753584054612404
tp835
sS'51043'
p836
(F-77.996690009863798
F39.112344868785698
tp837
sS'55037'
p838
(F-88.398141463646994
F45.848479658314801
tp839
sS'19171'
p840
(F-92.532551133882293
F42.079808178288403
tp841
sS'48059'
p842
(F-99.373485340311703
F32.297647539037399
tp843
sS'51047'
p844
(F-77.955884074903395
F38.486058412222199
tp845
sS'39167'
p846
(F-81.495285481428795
F39.455315211302597
tp847
sS'19175'
p848
(F-94.242365029801803
F41.027728853490302
tp849
sS'55031'
p850
(F-91.916160948823503
F46.4328750247142
tp851
sS'22027'
p852
(F-92.995757342632999
F32.822634780746696
tp853
sS'22025'
p854
(F-91.847062879716304
F31.666178730752499
tp855
sS'22023'
p856
(F-93.193819808738894
F29.8754448007485
tp857
sS'19031'
p858
(F-91.1324162059136
F41.772316428670202
tp859
sS'22021'
p860
(F-92.116560303390401
F32.092304739485499
tp861
sS'22029'
p862
(F-91.640071203076005
F31.445853804951302
tp863
sS'06007'
p864
(F-121.600679224066
F39.6669344268619
tp865
sS'06005'
p866
(F-120.65109778576399
F38.446390966373698
tp867
sS'06003'
p868
(F-119.82066448517701
F38.597197411748603
tp869
sS'06001'
p870
(F-121.889164095355
F37.646561837222599
tp871
sS'06009'
p872
(F-120.554121134448
F38.204598204421998
tp873
sS'17139'
p874
(F-88.619303638776202
F39.641415061781601
tp875
sS'51620'
p876
(F-76.938614595784898
F36.6830905156624
tp877
sS'16011'
p878
(F-112.39807775791201
F43.2165223943367
tp879
sS'39017'
p880
(F-84.575571676657702
F39.438626748509698
tp881
sS'16013'
p882
(F-113.980351207135
F43.412327425200601
tp883
sS'39015'
p884
(F-83.867426307534203
F38.934007186661297
tp885
sS'16015'
p886
(F-115.73024515994901
F43.989149322726398
tp887
sS'39013'
p888
(F-80.988485014733897
F40.015827319448597
tp889
sS'16017'
p890
(F-116.600984597947
F48.2997701945404
tp891
sS'39011'
p892
(F-84.221728930994303
F40.560917964131598
tp893
sS'16019'
p894
(F-111.614874806849
F43.387722515310202
tp895
sS'27155'
p896
(F-96.471592402080702
F45.772180696850803
tp897
sS'27157'
p898
(F-92.230274208792494
F44.284291721066602
tp899
sS'27151'
p900
(F-95.681422036646097
F45.282695158045001
tp901
sS'39019'
p902
(F-81.089716932436701
F40.579577727354398
tp903
sS'22117'
p904
(F-90.040448303419595
F30.853338139061599
tp905
sS'21129'
p906
(F-83.716194142305795
F37.594808430149101
tp907
sS'21127'
p908
(F-82.734735249685102
F38.067869929341498
tp909
sS'48367'
p910
(F-97.805067146309995
F32.7776476393067
tp911
sS'21125'
p912
(F-84.117801947847497
F37.110669612860498
tp913
sS'19149'
p914
(F-96.214133380893102
F42.7378125206749
tp915
sS'21123'
p916
(F-85.6979320202651
F37.545798064685499
tp917
sS'22115'
p918
(F-93.184208432228601
F31.1083152928658
tp919
sS'21121'
p920
(F-83.854046162106002
F36.890648139815603
tp921
sS'22113'
p922
(F-92.323807827452896
F29.846546826505399
tp923
sS'46061'
p924
(F-97.787321429513597
F43.674819330417698
tp925
sS'42033'
p926
(F-78.474127797810894
F41.000167201065501
tp927
sS'12039'
p928
(F-84.613625004981401
F30.579478489322899
tp929
sS'42031'
p930
(F-79.420960521617403
F41.192398631862403
tp931
sS'46065'
p932
(F-99.996018017076096
F44.389021937705003
tp933
sS'19085'
p934
(F-95.816838281178903
F41.6828609293092
tp935
sS'46067'
p936
(F-97.754420563814193
F43.334866652979301
tp937
sS'42035'
p938
(F-77.638160771281306
F41.234051069371901
tp939
sS'12033'
p940
(F-87.362782272914203
F30.6689259747106
tp941
sS'12031'
p942
(F-81.670838902154699
F30.331573146556
tp943
sS'42039'
p944
(F-80.106252026374406
F41.684703415836502
tp945
sS'12037'
p946
(F-84.801762570219594
F29.889604464117301
tp947
sS'13007'
p948
(F-84.444715232355705
F31.326144783564501
tp949
sS'12035'
p950
(F-81.313556043140395
F29.4614381121071
tp951
sS'51133'
p952
(F-76.419652471885897
F37.887627265278198
tp953
sS'51131'
p954
(F-75.876972437276706
F37.342985763385997
tp955
sS'51137'
p956
(F-78.013499170725595
F38.246216910133299
tp957
sS'51135'
p958
(F-78.051249378072697
F37.143031579706999
tp959
sS'40005'
p960
(F-96.037826295761207
F34.373728425096203
tp961
sS'51139'
p962
(F-78.484128779889105
F38.619984437631402
tp963
sS'19089'
p964
(F-92.317204779771302
F43.356755362960897
tp965
sS'40007'
p966
(F-100.47674900777901
F36.749661779260101
tp967
sS'19147'
p968
(F-94.678136121899996
F43.082086362092902
tp969
sS'06059'
p970
(F-117.761049212115
F33.7029732701724
tp971
sS'13299'
p972
(F-82.423718426819306
F31.053789089537698
tp973
sS'16053'
p974
(F-114.264062186766
F42.689897026754302
tp975
sS'13291'
p976
(F-83.990753589673901
F34.834086602639303
tp977
sS'13293'
p978
(F-84.299349502530404
F32.881247543725003
tp979
sS'13295'
p980
(F-85.300990120112701
F34.735645000296998
tp981
sS'13297'
p982
(F-83.733870026855001
F33.781557150505201
tp983
sS'12107'
p984
(F-81.744304193773701
F29.6086557170877
tp985
sS'12105'
p986
(F-81.697624015415499
F27.9488602163871
tp987
sS'12103'
p988
(F-82.725363782373407
F27.919289422682699
tp989
sS'12101'
p990
(F-82.392388813422599
F28.309300041880899
tp991
sS'12109'
p992
(F-81.440667934051106
F29.901648913268598
tp993
sS'26049'
p994
(F-83.706708699355403
F43.021719753819497
tp995
sS'05029'
p996
(F-92.701299574966797
F35.262233630633403
tp997
sS'26041'
p998
(F-86.925757010736305
F45.9214222098486
tp999
sS'05021'
p1000
(F-90.417557822969599
F36.3682715010669
tp1001
sS'26043'
p1002
(F-87.870204393249097
F46.009311396267201
tp1003
sS'05023'
p1004
(F-92.026723665404006
F35.538117223319198
tp1005
sS'26045'
p1006
(F-84.838301462708202
F42.5960789033346
tp1007
sS'05025'
p1008
(F-92.1851646955799
F33.8983519832761
tp1009
sS'26047'
p1010
(F-84.890805888040106
F45.520965753846497
tp1011
sS'05027'
p1012
(F-93.2272970896001
F33.214289828931598
tp1013
sS'20099'
p1014
(F-95.297573389973707
F37.1913071380852
tp1015
sS'48239'
p1016
(F-96.577633577047195
F28.954230997070301
tp1017
sS'20091'
p1018
(F-94.822310150579298
F38.8837590706638
tp1019
sS'20093'
p1020
(F-101.31988852773399
F38.000255033941798
tp1021
sS'20095'
p1022
(F-98.136335867169606
F37.558898379636297
tp1023
sS'20097'
p1024
(F-99.286073182353803
F37.558251941026903
tp1025
sS'06097'
p1026
(F-122.88740786017399
F38.528286587786098
tp1027
sS'13185'
p1028
(F-83.267730006324896
F30.833813530531099
tp1029
sS'01041'
p1030
(F-86.313555463978602
F31.731507236020299
tp1031
sS'01047'
p1032
(F-87.106473691248297
F32.325976529859297
tp1033
sS'13183'
p1034
(F-81.745696345352798
F31.752554295240898
tp1035
sS'01049'
p1036
(F-85.804104689424193
F34.459803892155499
tp1037
sS'13189'
p1038
(F-82.481372501016395
F33.482860211946303
tp1039
sS'12129'
p1040
(F-84.400661826159507
F30.1673244856586
tp1041
sS'36003'
p1042
(F-78.027588788700697
F42.2574032447882
tp1043
sS'36005'
p1044
(F-73.866492095838296
F40.850003943096603
tp1045
sS'36007'
p1046
(F-75.819617999497495
F42.160251873229697
tp1047
sS'36009'
p1048
(F-78.678855055961904
F42.248599073828998
tp1049
sS'45019'
p1050
(F-79.952780856047497
F32.834839146415398
tp1051
sS'05115'
p1052
(F-93.034152793993997
F35.447626869609898
tp1053
sS'48301'
p1054
(F-103.57994586391401
F31.849292678085099
tp1055
sS'05111'
p1056
(F-90.662989256544506
F35.574018429746197
tp1057
sS'48305'
p1058
(F-101.816123878913
F33.176834905136303
tp1059
sS'48309'
p1060
(F-97.201759533174993
F31.5523721730757
tp1061
sS'05119'
p1062
(F-92.311777112567498
F34.769935852091997
tp1063
sS'48435'
p1064
(F-100.538181593009
F30.498368276037301
tp1065
sS'48437'
p1066
(F-101.734994145917
F34.5303936592098
tp1067
sS'26025'
p1068
(F-85.005594671185605
F42.2465367240506
tp1069
sS'48433'
p1070
(F-100.253358733556
F33.179190598509599
tp1071
sS'48439'
p1072
(F-97.291225054307503
F32.771562825436703
tp1073
sS'12121'
p1074
(F-82.991496751278504
F30.195608518341299
tp1075
sS'48129'
p1076
(F-100.81398393298601
F34.965444655345998
tp1077
sS'48123'
p1078
(F-97.356744068305105
F29.0820646456433
tp1079
sS'48121'
p1080
(F-97.117001242519805
F33.205239483923798
tp1081
sS'26029'
p1082
(F-85.040783284206995
F45.224703372677297
tp1083
sS'48125'
p1084
(F-100.778911151804
F33.616459369331999
tp1085
sS'13071'
p1086
(F-83.768803573429807
F31.1883740888352
tp1087
sS'13073'
p1088
(F-82.264049639499405
F33.544120402363198
tp1089
sS'13075'
p1090
(F-83.430462975445195
F31.153994057846301
tp1091
sS'13077'
p1092
(F-84.763352698353998
F33.353464013638899
tp1093
sS'13079'
p1094
(F-83.986338572122804
F32.714504404888601
tp1095
sS'27141'
p1096
(F-93.774589815986801
F45.443942997512799
tp1097
sS'13277'
p1098
(F-83.526600800555698
F31.457429226493499
tp1099
sS'13275'
p1100
(F-83.919318071267398
F30.863757335144399
tp1101
sS'13273'
p1102
(F-84.436861257663594
F31.776926144010201
tp1103
sS'45089'
p1104
(F-79.727720812228497
F33.619911433728802
tp1105
sS'45087'
p1106
(F-81.619408471621298
F34.6892742341361
tp1107
sS'45085'
p1108
(F-80.382255529685096
F33.9162000538238
tp1109
sS'45083'
p1110
(F-81.990679160796205
F34.931259479825698
tp1111
sS'45081'
p1112
(F-81.726900119538797
F34.006134202764201
tp1113
sS'18099'
p1114
(F-86.261766403076393
F41.324843496593402
tp1115
sS'13143'
p1116
(F-85.2110190074782
F33.794217576169601
tp1117
sS'18093'
p1118
(F-86.483451710608307
F38.8411613330817
tp1119
sS'18091'
p1120
(F-86.7400005242433
F41.545972303646799
tp1121
sS'18097'
p1122
(F-86.138470178172398
F39.7817112598606
tp1123
sS'18095'
p1124
(F-85.719358833681994
F40.161618781868597
tp1125
sS'27113'
p1126
(F-96.036699906481701
F48.066232207837601
tp1127
sS'48057'
p1128
(F-96.601144306683196
F28.5078277643589
tp1129
sS'48055'
p1130
(F-97.619989995231407
F29.837096169602301
tp1131
sS'48053'
p1132
(F-98.1824303752215
F30.788351140568
tp1133
sS'48051'
p1134
(F-96.621439340682102
F30.4924760993351
tp1135
sS'40093'
p1136
(F-98.535957268565795
F36.311643363230203
tp1137
sS'40091'
p1138
(F-95.666818086820896
F35.373660869765203
tp1139
sS'40097'
p1140
(F-95.230845589712004
F36.301871583833197
tp1141
sS'40095'
p1142
(F-96.769127015909703
F34.024441916383303
tp1143
sS'20077'
p1144
(F-98.075483127180902
F37.191622584560498
tp1145
sS'20075'
p1146
(F-101.79124029897601
F37.999123826962602
tp1147
sS'37199'
p1148
(F-82.307577797924495
F35.898905900232599
tp1149
sS'20073'
p1150
(F-96.232621055029995
F37.877832272291101
tp1151
sS'20071'
p1152
(F-101.80604412408999
F38.480563910210599
tp1153
sS'37195'
p1154
(F-77.918612314135402
F35.705033205445197
tp1155
sS'37197'
p1156
(F-80.665339135593598
F36.160537504733199
tp1157
sS'37191'
p1158
(F-78.004142523305305
F35.363795334950296
tp1159
sS'37193'
p1160
(F-81.162904234453606
F36.206211356993997
tp1161
sS'20079'
p1162
(F-97.427231398374801
F38.043217408054304
tp1163
sS'08079'
p1164
(F-106.92412193366999
F37.668942286493497
tp1165
sS'48369'
p1166
(F-102.784473158591
F34.530072420711697
tp1167
sS'08071'
p1168
(F-104.03873975036601
F37.315793887780103
tp1169
sS'08073'
p1170
(F-103.51395078098101
F38.988090576522197
tp1171
sS'08075'
p1172
(F-103.1101295948
F40.724670257781902
tp1173
sS'08077'
p1174
(F-108.46644362747401
F39.018298917672702
tp1175
sS'18167'
p1176
(F-87.389930836003401
F39.4306577274209
tp1177
sS'20205'
p1178
(F-95.743418334365899
F37.559265586328898
tp1179
sS'18165'
p1180
(F-87.463976075688194
F39.853799267996102
tp1181
sS'18163'
p1182
(F-87.585835743592398
F38.025252447746603
tp1183
sS'18161'
p1184
(F-84.925137901040301
F39.625594776379998
tp1185
sS'20207'
p1186
(F-95.740134439402297
F37.886695571408197
tp1187
sS'18169'
p1188
(F-85.793998641151703
F40.845642053668399
tp1189
sS'08097'
p1190
(F-106.916592605218
F39.217090449642299
tp1191
sS'08095'
p1192
(F-102.357602027186
F40.593972767718
tp1193
sS'08093'
p1194
(F-105.717109176779
F39.119315551316099
tp1195
sS'08091'
p1196
(F-107.76926510449501
F38.155467662253997
tp1197
sS'28025'
p1198
(F-88.781557754623705
F33.655645826210097
tp1199
sS'08099'
p1200
(F-102.39335974663
F37.9551953678438
tp1201
sS'29127'
p1202
(F-91.622442923007398
F39.8059450256616
tp1203
sS'17045'
p1204
(F-87.745586133813504
F39.678562821931102
tp1205
sS'29125'
p1206
(F-91.9248583933758
F38.161646476472498
tp1207
sS'19035'
p1208
(F-95.623811940528299
F42.735620755661699
tp1209
sS'29123'
p1210
(F-90.345021390661501
F37.478046734966803
tp1211
sS'28027'
p1212
(F-90.6026839241202
F34.229184239783798
tp1213
sS'29121'
p1214
(F-92.564613047250504
F39.830781111732598
tp1215
sS'51595'
p1216
(F-77.535586398226599
F36.695319017619198
tp1217
sS'20139'
p1218
(F-95.726905021461107
F38.652319787121698
tp1219
sS'29129'
p1220
(F-93.568550684006496
F40.422333724338898
tp1221
sS'19033'
p1222
(F-93.260820415228906
F43.081563332641899
tp1223
sS'39129'
p1224
(F-83.024395050278997
F39.641929547886399
tp1225
sS'13147'
p1226
(F-82.964215024564695
F34.350838486554103
tp1227
sS'35049'
p1228
(F-105.976076261052
F35.506852103687102
tp1229
sS'39103'
p1230
(F-81.899692506570702
F41.117595448942303
tp1231
sS'35045'
p1232
(F-108.32061217733001
F36.508503437042997
tp1233
sS'35047'
p1234
(F-104.815818855375
F35.4802472130553
tp1235
sS'35041'
p1236
(F-103.480186421318
F34.021306670804698
tp1237
sS'35043'
p1238
(F-106.865949571689
F35.688519306522998
tp1239
sS'20133'
p1240
(F-95.306795808723606
F37.558495397027599
tp1241
sS'48393'
p1242
(F-100.813567399645
F35.838422854816201
tp1243
sS'55139'
p1244
(F-88.644648221864401
F44.068890093762299
tp1245
sS'55137'
p1246
(F-89.242893805977999
F44.113128510940101
tp1247
sS'48395'
p1248
(F-96.512801040135301
F31.027039178937802
tp1249
sS'55135'
p1250
(F-88.964775282237994
F44.470471378992102
tp1251
sS'55133'
p1252
(F-88.304526636597103
F43.018223754768798
tp1253
sS'55131'
p1254
(F-88.230718023723597
F43.368481647657099
tp1255
sS'31105'
p1256
(F-103.71491698766199
F41.1977583015099
tp1257
sS'31107'
p1258
(F-97.891904240334298
F42.636821641097399
tp1259
sS'31101'
p1260
(F-101.661278295825
F41.198849704599702
tp1261
sS'31103'
p1262
(F-99.712397344933606
F42.878876222763701
tp1263
sS'31109'
p1264
(F-96.687753111207499
F40.784172405097799
tp1265
sS'37103'
p1266
(F-77.3552546634847
F35.021669013479197
tp1267
sS'47013'
p1268
(F-84.149403626382707
F36.403525833584901
tp1269
sS'47011'
p1270
(F-84.859599806660199
F35.154097874447501
tp1271
sS'47017'
p1272
(F-88.450288614795994
F35.973156373052298
tp1273
sS'47015'
p1274
(F-86.061735108595897
F35.808671140829802
tp1275
sS'29045'
p1276
(F-91.738349857904097
F40.410333924293099
tp1277
sS'47019'
p1278
(F-82.127435946134796
F36.292767939435898
tp1279
sS'39157'
p1280
(F-81.473756722200207
F40.440941462832903
tp1281
sS'19165'
p1282
(F-95.310177839787698
F41.685091266711702
tp1283
sS'39155'
p1284
(F-80.761137693796599
F41.317188218838602
tp1285
sS'51057'
p1286
(F-76.951454347694593
F37.943421296100901
tp1287
sS'27019'
p1288
(F-93.802596506270604
F44.820790708035503
tp1289
sS'19161'
p1290
(F-95.105359344271903
F42.386235980350499
tp1291
sS'39151'
p1292
(F-81.365628110580701
F40.813882944719602
tp1293
sS'19163'
p1294
(F-90.623236581722296
F41.6370936513188
tp1295
sS'27015'
p1296
(F-94.727576663449597
F44.242140331092401
tp1297
sS'27017'
p1298
(F-92.677031356114895
F46.5924090711977
tp1299
sS'27011'
p1300
(F-96.410940679517296
F45.426102022331101
tp1301
sS'19169'
p1302
(F-93.465044943938807
F42.036238283288903
tp1303
sS'39159'
p1304
(F-83.371566863669202
F40.2994107011503
tp1305
sS'53011'
p1306
(F-122.482506826841
F45.779320636324897
tp1307
sS'55009'
p1308
(F-88.003730556816805
F44.452940618344897
tp1309
sS'51041'
p1310
(F-77.586959055391702
F37.378531763063798
tp1311
sS'55003'
p1312
(F-90.682524501251706
F46.266145438276197
tp1313
sS'28061'
p1314
(F-89.118839703139002
F32.019135598767299
tp1315
sS'55001'
p1316
(F-89.770389022916405
F43.969538056600101
tp1317
sS'37109'
p1318
(F-81.223867561249193
F35.486181598858202
tp1319
sS'55007'
p1320
(F-91.2018093709125
F46.5220361433473
tp1321
sS'55005'
p1322
(F-91.848303616607396
F45.423684756139899
tp1323
sS'22031'
p1324
(F-93.737244845780495
F32.055435092764903
tp1325
sS'22033'
p1326
(F-91.095600190677402
F30.538251503101701
tp1327
sS'22035'
p1328
(F-91.235058179516699
F32.732544093117397
tp1329
sS'22037'
p1330
(F-91.045524240004298
F30.845105366277899
tp1331
sS'22039'
p1332
(F-92.405900979934103
F30.728945940210401
tp1333
sS'06011'
p1334
(F-122.236961446526
F39.1774862823167
tp1335
sS'06013'
p1336
(F-121.927924913398
F37.919162697534503
tp1337
sS'06015'
p1338
(F-123.897249484591
F41.743129280516001
tp1339
sS'06017'
p1340
(F-120.524658081151
F38.7787355093649
tp1341
sS'06019'
p1342
(F-119.64930439811199
F36.758196726155496
tp1343
sS'51630'
p1344
(F-77.487075414051105
F38.299202292469097
tp1345
sS'06043'
p1346
(F-119.90542707303101
F37.581506201288597
tp1347
sS'30083'
p1348
(F-104.56142215950899
F47.787914899773497
tp1349
sS'27129'
p1350
(F-94.947116435118303
F44.726813861309701
tp1351
sS'16003'
p1352
(F-116.45379720734
F44.889662795296204
tp1353
sS'39021'
p1354
(F-83.769495793450801
F40.1376751610726
tp1355
sS'16001'
p1356
(F-116.241102100687
F43.451157714990202
tp1357
sS'39027'
p1358
(F-83.808368776388093
F39.414982024158803
tp1359
sS'28063'
p1360
(F-91.037350940441996
F31.734283812555301
tp1361
sS'39025'
p1362
(F-84.1518344326403
F39.047480075285399
tp1363
sS'16005'
p1364
(F-112.22463657652401
F42.668518283125401
tp1365
sS'27121'
p1366
(F-95.444513328639005
F45.586005937321403
tp1367
sS'27123'
p1368
(F-93.099606089132806
F45.017062843564901
tp1369
sS'16009'
p1370
(F-116.658784442925
F47.217577335333203
tp1371
sS'27125'
p1372
(F-96.095349737732107
F47.8716898670001
tp1373
sS'27127'
p1374
(F-95.253837912406098
F44.403663683378497
tp1375
sS'42129'
p1376
(F-79.466965386766304
F40.310723161791401
tp1377
sS'21139'
p1378
(F-88.353722007245096
F37.209626080375898
tp1379
sS'21131'
p1380
(F-83.3811390524003
F37.094061429175902
tp1381
sS'21133'
p1382
(F-82.855312799031694
F37.1211748699399
tp1383
sS'21135'
p1384
(F-83.3780696219672
F38.531586201389302
tp1385
sS'21137'
p1386
(F-84.660810812845597
F37.4553506777401
tp1387
sS'12027'
p1388
(F-81.809388033591503
F27.1863608563411
tp1389
sS'12021'
p1390
(F-81.347591152517793
F26.110700599206801
tp1391
sS'12023'
p1392
(F-82.621534998002204
F30.224246930054399
tp1393
sS'06047'
p1394
(F-120.717633535324
F37.191876329330903
tp1395
sS'51830'
p1396
(F-76.707473126599993
F37.269083082961103
tp1397
sS'12029'
p1398
(F-83.158841938696099
F29.6081558400011
tp1399
sS'46073'
p1400
(F-98.629691836516301
F44.066322753735498
tp1401
sS'36021'
p1402
(F-73.631796784915196
F42.250081064525098
tp1403
sS'46117'
p1404
(F-100.735928709454
F44.412302829396602
tp1405
sS'42009'
p1406
(F-78.490296053888997
F40.006546652335402
tp1407
sS'46075'
p1408
(F-100.68971265152
F43.960596126662502
tp1409
sS'42007'
p1410
(F-80.349285169966905
F40.682272642132602
tp1411
sS'42005'
p1412
(F-79.464528081732993
F40.812304522187702
tp1413
sS'46079'
p1414
(F-97.129360384286997
F44.022053971264498
tp1415
sS'42003'
p1416
(F-79.981193020390904
F40.468829666773502
tp1417
sS'42001'
p1418
(F-77.217875434510205
F39.871491687734803
tp1419
sS'36027'
p1420
(F-73.742859961174304
F41.765146647968102
tp1421
sS'51125'
p1422
(F-78.886762311363597
F37.787412645273498
tp1423
sS'51127'
p1424
(F-76.997123190141096
F37.5051406055576
tp1425
sS'51121'
p1426
(F-80.387001576157303
F37.174243238397899
tp1427
sS'48027'
p1428
(F-97.478220370723903
F31.037677407169099
tp1429
sS'48025'
p1430
(F-97.7411660539275
F28.417372025275998
tp1431
sS'38011'
p1432
(F-103.520703415661
F46.1126228722026
tp1433
sS'45011'
p1434
(F-81.4350007754404
F33.266050451663901
tp1435
sS'12111'
p1436
(F-80.472026150315003
F27.3772566474264
tp1437
sS'12113'
p1438
(F-87.021977402779598
F30.700442125515099
tp1439
sS'12115'
p1440
(F-82.331504077061197
F27.184467452066599
tp1441
sS'12117'
p1442
(F-81.236299626221097
F28.716975706013901
tp1443
sS'12119'
p1444
(F-82.080967804768093
F28.704735293425902
tp1445
sS'41041'
p1446
(F-123.86833078969499
F44.641780388663598
tp1447
sS'40063'
p1448
(F-96.250260552419107
F35.048337511961201
tp1449
sS'26059'
p1450
(F-84.592942550293003
F41.887782335326698
tp1451
sS'17199'
p1452
(F-88.929917582423698
F37.730254192978599
tp1453
sS'17197'
p1454
(F-87.978555849140605
F41.445021413628098
tp1455
sS'26053'
p1456
(F-89.694451369365694
F46.4088341651305
tp1457
sS'17195'
p1458
(F-89.914095521971603
F41.756278163905598
tp1459
sS'26051'
p1460
(F-84.388274786863803
F43.990643188898602
tp1461
sS'17193'
p1462
(F-88.179547384581099
F38.087414560765801
tp1463
sS'40061'
p1464
(F-95.116580047399594
F35.224846765521796
tp1465
sS'17191'
p1466
(F-88.425628179448907
F38.429570206654397
tp1467
sS'26055'
p1468
(F-85.560464047732395
F44.668614558054799
tp1469
sS'48209'
p1470
(F-98.031063260528896
F30.0581412500241
tp1471
sS'48203'
p1472
(F-94.371468271759895
F32.548136923512999
tp1473
sS'08117'
p1474
(F-106.11637674354201
F39.634192400686203
tp1475
sS'48201'
p1476
(F-95.3937383374641
F29.857805297308602
tp1477
sS'48207'
p1478
(F-99.7302996014146
F33.178230324306398
tp1479
sS'48205'
p1480
(F-102.60292309440899
F35.839989890595703
tp1481
sS'17175'
p1482
(F-89.797511685678501
F41.093324837320303
tp1483
sS'17177'
p1484
(F-89.662363489228795
F42.351716221831303
tp1485
sS'17171'
p1486
(F-90.474697671133995
F39.644120324366803
tp1487
sS'48029'
p1488
(F-98.520005498272994
F29.4489405444765
tp1489
sS'17173'
p1490
(F-88.805593709028599
F39.391121500375696
tp1491
sS'01077'
p1492
(F-87.654009779985103
F34.901406739493702
tp1493
sS'01075'
p1494
(F-88.096953973346302
F33.779141547342398
tp1495
sS'01073'
p1496
(F-86.896490805588599
F33.5543141019483
tp1497
sS'01071'
p1498
(F-85.999348404655095
F34.779466453611903
tp1499
sS'51141'
p1500
(F-80.284394617837506
F36.678311103907497
tp1501
sS'26145'
p1502
(F-84.053169619550403
F43.335042070361403
tp1503
sS'48339'
p1504
(F-95.503008530195103
F30.300191312013901
tp1505
sS'48337'
p1506
(F-97.724639724262502
F33.675683098727802
tp1507
sS'48335'
p1508
(F-100.92113937219899
F32.306202292305301
tp1509
sS'48333'
p1510
(F-98.595445061597204
F31.4952003896659
tp1511
sS'48331'
p1512
(F-96.976866425990906
F30.786349119138102
tp1513
sS'48441'
p1514
(F-99.890104895948696
F32.301423888897297
tp1515
sS'48443'
p1516
(F-102.07648528553599
F30.224994992029998
tp1517
sS'48113'
p1518
(F-96.777875376632196
F32.766631683009201
tp1519
sS'48111'
p1520
(F-102.602213364205
F36.277880951198803
tp1521
sS'48449'
p1522
(F-94.965685586284195
F33.216586211576697
tp1523
sS'40151'
p1524
(F-98.865102186699104
F36.766943753066002
tp1525
sS'48119'
p1526
(F-95.672348993382201
F33.386277995351499
tp1527
sS'19151'
p1528
(F-94.678744022875904
F42.7341641965725
tp1529
sS'36001'
p1530
(F-73.973555421018403
F42.600176751602
tp1531
sS'48417'
p1532
(F-99.354053504926398
F32.7359230841856
tp1533
sS'53025'
p1534
(F-119.451745243452
F47.205678510889001
tp1535
sS'48415'
p1536
(F-100.916429292801
F32.7462829410591
tp1537
sS'13089'
p1538
(F-84.226419708602293
F33.771528151784203
tp1539
sS'13085'
p1540
(F-84.1706154491185
F34.444291419777002
tp1541
sS'13087'
p1542
(F-84.579054692426794
F30.878358492698201
tp1543
sS'13081'
p1544
(F-83.7680647033078
F31.9229269645983
tp1545
sS'13083'
p1546
(F-85.504517317505901
F34.854553521459998
tp1547
sS'48141'
p1548
(F-106.23483695469299
F31.768573169677001
tp1549
sS'13243'
p1550
(F-84.754200714262595
F31.762650459110901
tp1551
sS'13241'
p1552
(F-83.402073436329502
F34.881734944970098
tp1553
sS'13247'
p1554
(F-84.026595344275904
F33.654250269641402
tp1555
sS'13245'
p1556
(F-82.073507495898397
F33.359597881383998
tp1557
sS'36101'
p1558
(F-77.383785431981295
F42.267808438601897
tp1559
sS'13249'
p1560
(F-84.3148583597483
F32.2619139504298
tp1561
sS'48143'
p1562
(F-98.217943310279395
F32.236252556619
tp1563
sS'36105'
p1564
(F-74.768110886079498
F41.716433710120398
tp1565
sS'36107'
p1566
(F-76.306349357100402
F42.170334710866904
tp1567
sS'34031'
p1568
(F-74.300893555049498
F41.034373713984898
tp1569
sS'48063'
p1570
(F-94.978519660568395
F32.973215931754297
tp1571
sS'48061'
p1572
(F-97.522248207969795
F26.131977877908401
tp1573
sS'48067'
p1574
(F-94.343544011947202
F33.077536261655503
tp1575
sS'48065'
p1576
(F-101.354201546864
F35.403490961939902
tp1577
sS'28093'
p1578
(F-89.503060070005304
F34.762278729201903
tp1579
sS'48069'
p1580
(F-102.261683244661
F34.529873241035702
tp1581
sS'20043'
p1582
(F-95.146799330866102
F39.7880580581445
tp1583
sS'20041'
p1584
(F-97.152694054229698
F38.866487377064303
tp1585
sS'20047'
p1586
(F-99.312165656815793
F37.887637189434301
tp1587
sS'20045'
p1588
(F-95.292591046726301
F38.884668014455201
tp1589
sS'37189'
p1590
(F-81.696346102408896
F36.231079094186903
tp1591
sS'37187'
p1592
(F-76.576752368208901
F35.822167260703203
tp1593
sS'20049'
p1594
(F-96.2441413922854
F37.453698008966001
tp1595
sS'37185'
p1596
(F-78.106873100224803
F36.396566834101201
tp1597
sS'37183'
p1598
(F-78.650230775490698
F35.790140022168799
tp1599
sS'37181'
p1600
(F-78.408347920693004
F36.364737952338501
tp1601
sS'01095'
p1602
(F-86.306622394393699
F34.366971670263503
tp1603
sS'01097'
p1604
(F-88.206471782624405
F30.791515789285999
tp1605
sS'01091'
p1606
(F-87.789539006709305
F32.247674795430598
tp1607
sS'31061'
p1608
(F-98.952802137695599
F40.176329499911198
tp1609
sS'01093'
p1610
(F-87.887133335981005
F34.136557743302902
tp1611
sS'01099'
p1612
(F-87.365429364342802
F31.5708802960112
tp1613
sS'18171'
p1614
(F-87.353295377816494
F40.346935188474497
tp1615
sS'18173'
p1616
(F-87.272097357924693
F38.092239021740198
tp1617
sS'18175'
p1618
(F-86.105304986423107
F38.599992772285901
tp1619
sS'18177'
p1620
(F-85.009838243473695
F39.8643823553559
tp1621
sS'18179'
p1622
(F-85.221194002610005
F40.729189073321201
tp1623
sS'54035'
p1624
(F-81.674798162180295
F38.834468937007998
tp1625
sS'54037'
p1626
(F-77.8627969887457
F39.307577801823498
tp1627
sS'54031'
p1628
(F-78.857948559468397
F39.007534957201599
tp1629
sS'54033'
p1630
(F-80.379859171311793
F39.283524699371398
tp1631
sS'54039'
p1632
(F-81.528090018277794
F38.336558380765503
tp1633
sS'29131'
p1634
(F-92.428383721877097
F38.214505344052597
tp1635
sS'29133'
p1636
(F-89.2911492461118
F36.8280871954966
tp1637
sS'29135'
p1638
(F-92.583091884505095
F38.632757554030803
tp1639
sS'48093'
p1640
(F-98.558250045298806
F31.947986100120399
tp1641
sS'29139'
p1642
(F-91.470228021096503
F38.941459533497202
tp1643
sS'18085'
p1644
(F-85.860723240911199
F41.244071683451601
tp1645
sS'48091'
p1646
(F-98.278253437123198
F29.808185696060502
tp1647
sS'18081'
p1648
(F-86.101628374341004
F39.489970457351802
tp1649
sS'18083'
p1650
(F-87.418047438311902
F38.689031200674101
tp1651
sS'18089'
p1652
(F-87.382097240775195
F41.417175519891202
tp1653
sS'48097'
p1654
(F-97.212587653331894
F33.639259312373198
tp1655
sS'31009'
p1656
(F-99.976815170566596
F41.912779852882899
tp1657
sS'40119'
p1658
(F-96.975802347157199
F36.077305694603197
tp1659
sS'35059'
p1660
(F-103.47102778605399
F36.481736870981699
tp1661
sS'31005'
p1662
(F-101.695914982989
F41.568934588430402
tp1663
sS'35057'
p1664
(F-105.85079695842499
F34.640400681719697
tp1665
sS'31007'
p1666
(F-103.71061365682399
F41.5460211254494
tp1667
sS'35055'
p1668
(F-105.630965079963
F36.578302729629399
tp1669
sS'31001'
p1670
(F-98.501209365121198
F40.524476273797298
tp1671
sS'35053'
p1672
(F-106.93026657624701
F34.007288911022201
tp1673
sS'31003'
p1674
(F-98.066682685872706
F42.176912272001601
tp1675
sS'35051'
p1676
(F-107.192270195757
F33.1305762786304
tp1677
sS'19197'
p1678
(F-93.735145738894403
F42.733083856326203
tp1679
sS'13053'
p1680
(F-84.787025360636306
F32.346986130579403
tp1681
sS'13119'
p1682
(F-83.2291480298626
F34.375465843216901
tp1683
sS'55129'
p1684
(F-91.791216036639398
F45.899225599761202
tp1685
sS'11001'
p1686
(F-77.016293838366593
F38.904733935498697
tp1687
sS'48099'
p1688
(F-97.799205145450401
F31.390917128368098
tp1689
sS'55121'
p1690
(F-91.358456378509203
F44.303965273227803
tp1691
sS'55123'
p1692
(F-90.834414980920997
F43.5938720710799
tp1693
sS'55125'
p1694
(F-89.514815617454104
F46.052896511059998
tp1695
sS'55127'
p1696
(F-88.541936614806403
F42.668488620606702
tp1697
sS'31171'
p1698
(F-100.55578976149501
F41.913579040384398
tp1699
sS'28085'
p1700
(F-90.454011982038296
F31.5324082353257
tp1701
sS'28083'
p1702
(F-90.301077953460705
F33.5505426890116
tp1703
sS'31177'
p1704
(F-96.222007225813798
F41.531062506230299
tp1705
sS'31179'
p1706
(F-97.119262785794007
F42.209286235351698
tp1707
sS'13055'
p1708
(F-85.345340783069901
F34.475000263312403
tp1709
sS'28089'
p1710
(F-90.0337492364159
F32.634657840964501
tp1711
sS'47009'
p1712
(F-83.925556310395294
F35.687230943204
tp1713
sS'47005'
p1714
(F-88.068304965521506
F36.069788963856901
tp1715
sS'38087'
p1716
(F-103.459861654273
F46.447230760237701
tp1717
sS'47001'
p1718
(F-84.198461498270802
F36.1184500174028
tp1719
sS'47003'
p1720
(F-86.458886883175097
F35.513803048053198
tp1721
sS'19111'
p1722
(F-91.479260663748704
F40.641999318574598
tp1723
sS'55015'
p1724
(F-88.218056725565702
F44.081603536290402
tp1725
sS'51023'
p1726
(F-79.812349078324999
F37.557131046804201
tp1727
sS'39143'
p1728
(F-83.145444494261696
F41.356798660525399
tp1729
sS'51025'
p1730
(F-77.859024922737802
F36.764776617894803
tp1731
sS'55011'
p1732
(F-91.754455440083206
F44.379831798356797
tp1733
sS'19117'
p1734
(F-93.327745516953698
F41.029394619834399
tp1735
sS'55013'
p1736
(F-92.367575499292499
F45.862672502213698
tp1737
sS'51029'
p1738
(F-78.528798656820996
F37.572209407911302
tp1739
sS'27007'
p1740
(F-94.937676075078201
F47.973771922889199
tp1741
sS'27005'
p1742
(F-95.673969456517
F46.9346538561445
tp1743
sS'55019'
p1744
(F-90.612079846984301
F44.734741959551499
tp1745
sS'27001'
p1746
(F-93.415424925313204
F46.608230957162299
tp1747
sS'30097'
p1748
(F-109.941046124525
F45.813882692818602
tp1749
sS'36117'
p1750
(F-77.029372624360903
F43.156637076755203
tp1751
sS'46025'
p1752
(F-97.729500990216707
F44.858240661767603
tp1753
sS'19167'
p1754
(F-96.177855715626393
F43.082633753140399
tp1755
sS'39153'
p1756
(F-81.532166539845605
F41.125975762358202
tp1757
sS'46027'
p1758
(F-96.975644806657698
F42.914681316202802
tp1759
sS'51051'
p1760
(F-82.350398369283994
F37.125749979129601
tp1761
sS'46021'
p1762
(F-100.051611751943
F45.771172268452503
tp1763
sS'51053'
p1764
(F-77.632338796087296
F37.075903280591199
tp1765
sS'27139'
p1766
(F-93.535927336098695
F44.648454571215801
tp1767
sS'19029'
p1768
(F-94.927819760636098
F41.331505185348803
tp1769
sS'39039'
p1770
(F-84.490474836059505
F41.323916588623703
tp1771
sS'16039'
p1772
(F-115.469222153953
F43.353910650463199
tp1773
sS'16037'
p1774
(F-114.281787705902
F44.241418156078304
tp1775
sS'39035'
p1776
(F-81.658648191827297
F41.424441223242297
tp1777
sS'16035'
p1778
(F-115.65632064591399
F46.673620580280101
tp1779
sS'39037'
p1780
(F-84.619402359595497
F40.1332685586151
tp1781
sS'16033'
p1782
(F-112.35140974415
F44.283979231695703
tp1783
sS'27137'
p1784
(F-92.470644323686798
F47.6031677140572
tp1785
sS'16031'
p1786
(F-113.60036349230199
F42.283875414346703
tp1787
sS'39033'
p1788
(F-82.919777125662904
F40.850769155056803
tp1789
sS'51800'
p1790
(F-76.639836935403494
F36.695314408000897
tp1791
sS'51059'
p1792
(F-77.277337596213698
F38.837112022831498
tp1793
sS'12051'
p1794
(F-81.165848606547897
F26.553483077821198
tp1795
sS'12053'
p1796
(F-82.425034454682105
F28.553632618214799
tp1797
sS'12055'
p1798
(F-81.341043218331393
F27.343323538534101
tp1799
sS'27013'
p1800
(F-94.067013256038905
F44.034591373386498
tp1801
sS'12057'
p1802
(F-82.308874643574498
F27.929365917016298
tp1803
sS'12059'
p1804
(F-85.814018239331403
F30.867920664938801
tp1805
sS'46033'
p1806
(F-103.451517007229
F43.677620890194099
tp1807
sS'42019'
p1808
(F-79.912984172686393
F40.911733838489603
tp1809
sS'39145'
p1810
(F-82.992827592774404
F38.803999180824299
tp1811
sS'46049'
p1812
(F-99.145288502080405
F45.071014348911099
tp1813
sS'46047'
p1814
(F-103.527498094252
F43.239375159084801
tp1815
sS'42011'
p1816
(F-75.925986721883106
F40.416295791260502
tp1817
sS'46045'
p1818
(F-99.215324592989802
F45.418790945942199
tp1819
sS'42013'
p1820
(F-78.348612096938297
F40.480988546197104
tp1821
sS'46043'
p1822
(F-98.366077930892402
F43.386918669685897
tp1823
sS'42015'
p1824
(F-76.515386341794098
F41.788697096036898
tp1825
sS'46041'
p1826
(F-100.87184460302799
F45.156637761531798
tp1827
sS'42017'
p1828
(F-75.106785089562095
F40.3368678268466
tp1829
sS'51159'
p1830
(F-76.726864857916894
F37.943383206544198
tp1831
sS'48347'
p1832
(F-94.615856619247396
F31.615982782112798
tp1833
sS'51153'
p1834
(F-77.480850137259395
F38.7047576609719
tp1835
sS'51155'
p1836
(F-80.714345199690797
F37.0636022699506
tp1837
sS'51157'
p1838
(F-78.159259068460997
F38.684723803382198
tp1839
sS'48345'
p1840
(F-100.779813820928
F34.074063249705397
tp1841
sS'20165'
p1842
(F-99.309152104445005
F38.523125670031703
tp1843
sS'21097'
p1844
(F-84.331357599608396
F38.441821157691898
tp1845
sS'21095'
p1846
(F-83.217993744143996
F36.856945555378701
tp1847
sS'21093'
p1848
(F-85.963446661184904
F37.697961981209602
tp1849
sS'21091'
p1850
(F-86.777907848558996
F37.841484815886297
tp1851
sS'46031'
p1852
(F-101.196905474589
F45.708607782987997
tp1853
sS'51580'
p1854
(F-79.986784457867202
F37.778554585108097
tp1855
sS'21099'
p1856
(F-85.8846906277047
F37.299930338824097
tp1857
sS'26067'
p1858
(F-85.074603971697798
F42.945096525233197
tp1859
sS'39147'
p1860
(F-83.127660800059701
F41.123859872113997
tp1861
sS'26065'
p1862
(F-84.373546274061297
F42.5970991965062
tp1863
sS'26063'
p1864
(F-83.023434471847196
F43.833276069718998
tp1865
sS'26061'
p1866
(F-88.687465674456007
F46.897754552495002
tp1867
sS'26069'
p1868
(F-83.635860194451595
F44.355826976220101
tp1869
sS'17189'
p1870
(F-89.410448258735002
F38.352162628902697
tp1871
sS'17181'
p1872
(F-89.255112603991904
F37.471230705897803
tp1873
sS'17183'
p1874
(F-87.7328392424605
F40.183439913398601
tp1875
sS'17185'
p1876
(F-87.844502811212493
F38.446027176657999
tp1877
sS'17187'
p1878
(F-90.615005251630095
F40.848814851120501
tp1879
sS'36023'
p1880
(F-76.0702789307648
F42.595015149567097
tp1881
sS'01069'
p1882
(F-85.302464095155401
F31.153195644658201
tp1883
sS'17165'
p1884
(F-88.540800462524203
F37.753194687672803
tp1885
sS'17163'
p1886
(F-89.928391209256901
F38.470297566979397
tp1887
sS'17161'
p1888
(F-90.567353418079904
F41.467300601753699
tp1889
sS'01061'
p1890
(F-85.839086758397499
F31.095053393038199
tp1891
sS'01063'
p1892
(F-87.952225753483603
F32.853127097618099
tp1893
sS'01065'
p1894
(F-87.629146077889999
F32.762663630674503
tp1895
sS'01067'
p1896
(F-85.241413929918593
F31.5147041650844
tp1897
sS'08053'
p1898
(F-107.300301908827
F37.821284803314803
tp1899
sS'48329'
p1900
(F-102.031595217134
F31.869138024845299
tp1901
sS'54087'
p1902
(F-81.348351339208506
F38.714016611413101
tp1903
sS'48321'
p1904
(F-96.010998034769301
F28.821159273400401
tp1905
sS'48323'
p1906
(F-100.314481433322
F28.742469144736301
tp1907
sS'26077'
p1908
(F-85.531185045427705
F42.245459948090399
tp1909
sS'48325'
p1910
(F-99.110162404836998
F29.3556942573715
tp1911
sS'08057'
p1912
(F-106.342794389671
F40.666441999007702
tp1913
sS'48453'
p1914
(F-97.781963338447696
F30.334694158322201
tp1915
sS'48103'
p1916
(F-102.515592454032
F31.428618479029801
tp1917
sS'48457'
p1918
(F-94.376599164053701
F30.771234873380699
tp1919
sS'48455'
p1920
(F-95.135506231588707
F31.088833664634201
tp1921
sS'48109'
p1922
(F-104.517318163227
F31.4470643991713
tp1923
sS'48459'
p1924
(F-94.941481187111606
F32.736267275796898
tp1925
sS'13099'
p1926
(F-84.903654240428594
F31.322831005459101
tp1927
sS'13097'
p1928
(F-84.767960328897701
F33.701841881977998
tp1929
sS'13095'
p1930
(F-84.216367054096395
F31.533458096354401
tp1931
sS'13093'
p1932
(F-83.798767513696902
F32.157201192357903
tp1933
sS'13091'
p1934
(F-83.168397370515706
F32.172206965505602
tp1935
sS'48215'
p1936
(F-98.181204629527898
F26.396882813665702
tp1937
sS'36119'
p1938
(F-73.756056059398404
F41.162409932667302
tp1939
sS'48211'
p1940
(F-100.270610605416
F35.837540370494899
tp1941
sS'48213'
p1942
(F-95.853591793617397
F32.211894879161598
tp1943
sS'36113'
p1944
(F-73.846016648196695
F43.560966838650401
tp1945
sS'36111'
p1946
(F-74.258544348639006
F41.888138815589897
tp1947
sS'13251'
p1948
(F-81.611941555738895
F32.750605388476998
tp1949
sS'36115'
p1950
(F-73.430752123717895
F43.3137129613459
tp1951
sS'37097'
p1952
(F-80.873437660239404
F35.807088808612598
tp1953
sS'48079'
p1954
(F-102.828518665777
F33.604186189411102
tp1955
sS'28081'
p1956
(F-88.680406306012799
F34.289915265002598
tp1957
sS'48075'
p1958
(F-100.207617934065
F34.529140031292599
tp1959
sS'48077'
p1960
(F-98.208511875539401
F33.785505609130098
tp1961
sS'48071'
p1962
(F-94.608166667256199
F29.739423982966098
tp1963
sS'48073'
p1964
(F-95.165187681200507
F31.836957613010402
tp1965
sS'24025'
p1966
(F-76.317106420524098
F39.561304496454099
tp1967
sS'53001'
p1968
(F-118.560468995918
F46.983424279130297
tp1969
sS'24027'
p1970
(F-76.931188584466796
F39.250722680851801
tp1971
sS'24021'
p1972
(F-77.398006406427896
F39.472230655356
tp1973
sS'20059'
p1974
(F-95.285947257971699
F38.564530313734402
tp1975
sS'24023'
p1976
(F-79.273822218536694
F39.528596051437098
tp1977
sS'20055'
p1978
(F-100.73700062579201
F38.0442805449022
tp1979
sS'20057'
p1980
(F-99.887955289228799
F37.6917161103691
tp1981
sS'24029'
p1982
(F-76.039928740089493
F39.254537055349097
tp1983
sS'20051'
p1984
(F-99.317254855174099
F38.914740537528601
tp1985
sS'20053'
p1986
(F-98.204745233307406
F38.6966417510314
tp1987
sS'40145'
p1988
(F-95.521178861614601
F35.961089428507499
tp1989
sS'01085'
p1990
(F-86.650107693781493
F32.154745547795102
tp1991
sS'40141'
p1992
(F-98.924211258652505
F34.372837063284102
tp1993
sS'40143'
p1994
(F-95.941466015495607
F36.121085498283897
tp1995
sS'26001'
p1996
(F-83.593713663763495
F44.685416722302499
tp1997
sS'40149'
p1998
(F-98.992208930338094
F35.290378027301003
tp1999
sS'01089'
p2000
(F-86.550222471220806
F34.763091715456497
tp2001
sS'26003'
p2002
(F-86.602531061832394
F46.406263880375299
tp2003
sS'18181'
p2004
(F-86.865484437282205
F40.749759603570197
tp2005
sS'18183'
p2006
(F-85.505120320380698
F41.139380436321503
tp2007
sS'54027'
p2008
(F-78.614112897635096
F39.317074571747
tp2009
sS'54025'
p2010
(F-80.452989999558696
F37.946958165875799
tp2011
sS'54023'
p2012
(F-79.195595273719206
F39.105135531112403
tp2013
sS'54021'
p2014
(F-80.857063792025599
F38.924051101642199
tp2015
sS'54029'
p2016
(F-80.573899813560899
F40.521861527337201
tp2017
sS'30015'
p2018
(F-110.43519157228
F47.880584085669
tp2019
sS'30017'
p2020
(F-105.571718641015
F46.252674817624801
tp2021
sS'30011'
p2022
(F-104.536150077659
F45.5167384002158
tp2023
sS'30013'
p2024
(F-111.347046132714
F47.307957589380699
tp2025
sS'34041'
p2026
(F-74.997020922557596
F40.8572214005032
tp2027
sS'31017'
p2028
(F-99.9294999885159
F42.42999989682
tp2029
sS'35061'
p2030
(F-106.809103241169
F34.715452039415503
tp2031
sS'31015'
p2032
(F-98.766542047137094
F42.899696757730702
tp2033
sS'30019'
p2034
(F-105.548551775733
F48.783780213806502
tp2035
sS'31013'
p2036
(F-103.085657128943
F42.219772264276202
tp2037
sS'31011'
p2038
(F-98.067242457802394
F41.706783337414997
tp2039
sS'48507'
p2040
(F-99.760533225883705
F28.8661754329937
tp2041
sS'39023'
p2042
(F-83.783907560189107
F39.916776724993802
tp2043
sS'27087'
p2044
(F-95.809046769330493
F47.3253042233938
tp2045
sS'23011'
p2046
(F-69.767333321798603
F44.409111767933297
tp2047
sS'28091'
p2048
(F-89.822430544736406
F31.230850960656799
tp2049
sS'23013'
p2050
(F-69.234045370427793
F44.155974601677201
tp2051
sS'31161'
p2052
(F-102.408920592949
F42.504751105679098
tp2053
sS'23015'
p2054
(F-69.544159302654606
F44.068018986807402
tp2055
sS'28095'
p2056
(F-88.480482263294704
F33.892267464199101
tp2057
sS'23017'
p2058
(F-70.756605130056201
F44.4998805699489
tp2059
sS'28097'
p2060
(F-89.616362986852906
F33.494083236847402
tp2061
sS'23019'
p2062
(F-68.649462330812995
F45.400632476167502
tp2063
sS'28099'
p2064
(F-89.117552331221106
F32.753489452033897
tp2065
sS'31169'
p2066
(F-97.594951193746695
F40.176239523829203
tp2067
sS'16007'
p2068
(F-111.32961017908001
F42.284767412199201
tp2069
sS'20081'
p2070
(F-100.87119022936901
F37.562225960092803
tp2071
sS'47079'
p2072
(F-88.301276938884698
F36.331780545174198
tp2073
sS'47071'
p2074
(F-88.184489080458803
F35.198699936915197
tp2075
sS'47073'
p2076
(F-82.944666851594803
F36.441176757950899
tp2077
sS'47075'
p2078
(F-89.283814584329093
F35.5832311815455
tp2079
sS'39029'
p2080
(F-80.777196357750796
F40.768425136722598
tp2081
sS'47077'
p2082
(F-88.388021601774994
F35.654233077779601
tp2083
sS'55061'
p2084
(F-87.615283585790905
F44.516077814298697
tp2085
sS'19103'
p2086
(F-91.588086615193305
F41.671553310349701
tp2087
sS'55063'
p2088
(F-91.115215446950799
F43.9065758757597
tp2089
sS'19101'
p2090
(F-91.948892212936002
F41.031765635289503
tp2091
sS'55065'
p2092
(F-90.131701904800906
F42.660489027589499
tp2093
sS'51037'
p2094
(F-78.661648063572798
F37.011618983547599
tp2095
sS'55067'
p2096
(F-89.0719068742129
F45.262339903246101
tp2097
sS'19105'
p2098
(F-91.131424978761103
F42.121235493444502
tp2099
sS'27033'
p2100
(F-95.181200782751105
F44.007121460572101
tp2101
sS'27031'
p2102
(F-90.535520853401295
F47.902505009943098
tp2103
sS'19109'
p2104
(F-94.2067214606558
F43.204200710501901
tp2105
sS'27037'
p2106
(F-93.065426632240104
F44.671875610743498
tp2107
sS'27035'
p2108
(F-94.0708902815974
F46.482411090147203
tp2109
sS'13059'
p2110
(F-83.367334727759498
F33.951175253572799
tp2111
sS'47105'
p2112
(F-84.311188989325103
F35.735203903920997
tp2113
sS'47107'
p2114
(F-84.617465978532195
F35.424753869269999
tp2115
sS'47101'
p2116
(F-87.493101487698397
F35.527274096960497
tp2117
sS'47103'
p2118
(F-86.588978768064493
F35.140527153853597
tp2119
sS'47109'
p2120
(F-88.563607282163801
F35.175505671174299
tp2121
sS'27107'
p2122
(F-96.455286437040996
F47.326464507510799
tp2123
sS'12127'
p2124
(F-81.181923727193507
F29.0584173270355
tp2125
sS'27105'
p2126
(F-95.753364000007096
F43.674228790444403
tp2127
sS'27103'
p2128
(F-94.247379298214895
F44.349888436296702
tp2129
sS'27101'
p2130
(F-95.763273777527104
F44.022164141725199
tp2131
sS'29067'
p2132
(F-92.4987958344921
F36.932596678124099
tp2133
sS'27109'
p2134
(F-92.401749827108304
F44.0037604821133
tp2135
sS'39049'
p2136
(F-83.009295993020302
F39.969542225623798
tp2137
sS'16029'
p2138
(F-111.562295494495
F42.770521166027002
tp2139
sS'19039'
p2140
(F-93.785161564551998
F41.029016214049499
tp2141
sS'39041'
p2142
(F-83.004874214028405
F40.278397301923398
tp2143
sS'16021'
p2144
(F-116.46284325616899
F48.767001060844301
tp2145
sS'39043'
p2146
(F-82.618172650124194
F41.3603875553015
tp2147
sS'16023'
p2148
(F-113.172023185745
F43.722876712845903
tp2149
sS'39045'
p2150
(F-82.630577807666398
F39.751632526571697
tp2151
sS'16025'
p2152
(F-114.805880241379
F43.463261051457003
tp2153
sS'39047'
p2154
(F-83.456087222673204
F39.559875671736499
tp2155
sS'16027'
p2156
(F-116.70932082822701
F43.625157068809997
tp2157
sS'51810'
p2158
(F-76.043479903525593
F36.733534214684298
tp2159
sS'13141'
p2160
(F-83.000671553213806
F33.270449773492302
tp2161
sS'12043'
p2162
(F-81.1889956061232
F26.9564669776613
tp2163
sS'12041'
p2164
(F-82.800385348546101
F29.7258331925227
tp2165
sS'12047'
p2166
(F-82.947934444382994
F30.4963897975884
tp2167
sS'12045'
p2168
(F-85.226592906582894
F29.955534021204802
tp2169
sS'12049'
p2170
(F-81.809935898440301
F27.492695813931402
tp2171
sS'33011'
p2172
(F-71.716054283490294
F42.915324383888603
tp2173
sS'46059'
p2174
(F-99.004931439193797
F44.547779962866798
tp2175
sS'46051'
p2176
(F-96.767678339254999
F45.171936719750803
tp2177
sS'46053'
p2178
(F-99.185608294067194
F43.192418322438598
tp2179
sS'46055'
p2180
(F-101.53991960651
F44.294452918986899
tp2181
sS'46057'
p2182
(F-97.188319037458399
F44.6737606934986
tp2183
sS'51149'
p2184
(F-77.224156412029899
F37.186549053585303
tp2185
sS'01007'
p2186
(F-87.126475194607806
F32.998627980873501
tp2187
sS'17169'
p2188
(F-90.615080999560305
F40.158027880536402
tp2189
sS'51143'
p2190
(F-79.397104452129199
F36.821299614102301
tp2191
sS'29069'
p2192
(F-90.090911927642594
F36.272110724899797
tp2193
sS'51147'
p2194
(F-78.441074131574197
F37.224294171572403
tp2195
sS'51145'
p2196
(F-77.915204550952595
F37.550194078702098
tp2197
sS'12131'
p2198
(F-86.169688072448096
F30.643581712275701
tp2199
sS'01003'
p2200
(F-87.722570135765594
F30.727484277231198
tp2201
sS'21081'
p2202
(F-84.624584106136695
F38.6488135493912
tp2203
sS'21083'
p2204
(F-88.651200174492701
F36.723103260850998
tp2205
sS'21085'
p2206
(F-86.343912057976794
F37.460812970267
tp2207
sS'21087'
p2208
(F-85.553122190945601
F37.264036619857002
tp2209
sS'21089'
p2210
(F-82.9223473564317
F38.545693097950597
tp2211
sS'26071'
p2212
(F-88.5304881520469
F46.208706052842501
tp2213
sS'26073'
p2214
(F-84.846794264434493
F43.6406039867326
tp2215
sS'26075'
p2216
(F-84.423427738036096
F42.248486990005603
tp2217
sS'42107'
p2218
(F-76.215980078273901
F40.705813899968597
tp2219
sS'26079'
p2220
(F-85.090175466481796
F44.684646847615497
tp2221
sS'36049'
p2222
(F-75.448848499584301
F43.7846565748236
tp2223
sS'51063'
p2224
(F-80.362553665996103
F36.9316329551176
tp2225
sS'17153'
p2226
(F-89.126582464301194
F37.222882603739002
tp2227
sS'48269'
p2228
(F-100.255841001402
F33.616548670191698
tp2229
sS'17151'
p2230
(F-88.561523565006794
F37.412694362495401
tp2231
sS'46071'
p2232
(F-101.628142638894
F43.694261455294999
tp2233
sS'17157'
p2234
(F-89.825321898412
F38.052132583649197
tp2235
sS'17155'
p2236
(F-89.285841511777306
F41.204461349948602
tp2237
sS'36045'
p2238
(F-75.918054478017098
F44.050120269236103
tp2239
sS'05091'
p2240
(F-93.891553022847802
F33.312091424264402
tp2241
sS'05093'
p2242
(F-90.054200929823395
F35.763833617034003
tp2243
sS'05095'
p2244
(F-91.203894323162999
F34.677832909321197
tp2245
sS'05097'
p2246
(F-93.659528983395703
F34.538811085129197
tp2247
sS'46077'
p2248
(F-97.491521763495797
F44.369590125260103
tp2249
sS'36047'
p2250
(F-73.938531083000797
F40.639523531746498
tp2251
sS'13319'
p2252
(F-83.171238128910005
F32.802381718081598
tp2253
sS'13315'
p2254
(F-83.4323427629989
F31.972900362101701
tp2255
sS'13317'
p2256
(F-82.7432020911195
F33.781947528939
tp2257
sS'13311'
p2258
(F-83.747110241707105
F34.646381446091503
tp2259
sS'13313'
p2260
(F-84.967208258530604
F34.805611225103803
tp2261
sS'36041'
p2262
(F-74.497370562323994
F43.661131681720498
tp2263
sS'17081'
p2264
(F-88.923988677673705
F38.300528188942103
tp2265
sS'17083'
p2266
(F-90.356683974458704
F39.085682799653704
tp2267
sS'17085'
p2268
(F-90.212498716949199
F42.365754647996802
tp2269
sS'17087'
p2270
(F-88.880925693537904
F37.4596293153025
tp2271
sS'05147'
p2272
(F-91.243058281482803
F35.186329150321498
tp2273
sS'05145'
p2274
(F-91.745553059942196
F35.256271481585202
tp2275
sS'42109'
p2276
(F-77.070179749622497
F40.769835932646501
tp2277
sS'05143'
p2278
(F-94.215576578580595
F35.979061266307298
tp2279
sS'05141'
p2280
(F-92.515687095114799
F35.580643803758598
tp2281
sS'27047'
p2282
(F-93.348822349213904
F43.673809493321897
tp2283
sS'29211'
p2284
(F-93.111493766476002
F40.210600768581401
tp2285
sS'48469'
p2286
(F-96.971520353913206
F28.796352204989201
tp2287
sS'48467'
p2288
(F-95.836495797011693
F32.563714043388899
tp2289
sS'48465'
p2290
(F-101.151737788549
F29.892949893028799
tp2291
sS'48463'
p2292
(F-99.762293894350506
F29.357302589970001
tp2293
sS'48461'
p2294
(F-102.043151123755
F31.368798106285901
tp2295
sS'20119'
p2296
(F-100.366244291209
F37.238135973263503
tp2297
sS'20115'
p2298
(F-97.096892760318894
F38.358866713545403
tp2299
sS'20117'
p2300
(F-96.522943082966407
F39.7835685539034
tp2301
sS'20111'
p2302
(F-96.152644851179403
F38.456193869199701
tp2303
sS'20113'
p2304
(F-97.648026036814002
F38.391654482136097
tp2305
sS'36123'
p2306
(F-77.105467951810894
F42.633449431380299
tp2307
sS'36121'
p2308
(F-78.224456402797699
F42.702374272522
tp2309
sS'48261'
p2310
(F-97.715420710855497
F26.929616106931199
tp2311
sS'48263'
p2312
(F-100.77762429739801
F33.181312691455801
tp2313
sS'48265'
p2314
(F-99.350012157279195
F30.061455258795
tp2315
sS'48267'
p2316
(F-99.748688105514603
F30.486797438542101
tp2317
sS'13221'
p2318
(F-83.080712445601506
F33.8806679548319
tp2319
sS'13223'
p2320
(F-84.867295680348505
F33.920533670906899
tp2321
sS'13225'
p2322
(F-83.826885495987298
F32.568762777548699
tp2323
sS'13227'
p2324
(F-84.465562997306606
F34.464331739247598
tp2325
sS'55091'
p2326
(F-92.001533766105595
F44.582922757837402
tp2327
sS'40049'
p2328
(F-97.309323150917706
F34.704562321984703
tp2329
sS'50001'
p2330
(F-73.140815987643194
F44.030903675599099
tp2331
sS'40045'
p2332
(F-99.7546379414363
F36.2183644602922
tp2333
sS'40047'
p2334
(F-97.782723301825001
F36.3790579646897
tp2335
sS'40041'
p2336
(F-94.802648603781094
F36.4082013524066
tp2337
sS'40043'
p2338
(F-99.007910538279901
F35.987683787774202
tp2339
sS'48009'
p2340
(F-98.687628632069007
F33.615230960376302
tp2341
sS'17049'
p2342
(F-88.589868958464095
F39.059784884730803
tp2343
sS'48001'
p2344
(F-95.652537148368793
F31.813317010867301
tp2345
sS'48003'
p2346
(F-102.637737443048
F32.305030306503497
tp2347
sS'48005'
p2348
(F-94.611847753258999
F31.254771748275001
tp2349
sS'48007'
p2350
(F-96.940466483841206
F28.2317802194579
tp2351
sS'20029'
p2352
(F-97.649249591447798
F39.480303862496903
tp2353
sS'24037'
p2354
(F-76.605778267705105
F38.302430652695399
tp2355
sS'24035'
p2356
(F-76.020190685656203
F39.068074004891599
tp2357
sS'24033'
p2358
(F-76.847279912445302
F38.829522965754599
tp2359
sS'24031'
p2360
(F-77.204182463856696
F39.136334098593103
tp2361
sS'20021'
p2362
(F-94.846290856891301
F37.169327037254298
tp2363
sS'20023'
p2364
(F-101.731293855852
F39.785868503615902
tp2365
sS'20025'
p2366
(F-99.820298009421606
F37.235506997797103
tp2367
sS'20027'
p2368
(F-97.165192364918695
F39.3497178944476
tp2369
sS'24039'
p2370
(F-75.733902459103604
F38.122387247138199
tp2371
sS'40131'
p2372
(F-95.604363471868297
F36.371574980764699
tp2373
sS'13137'
p2374
(F-83.531108123037001
F34.631030486624901
tp2375
sS'40135'
p2376
(F-94.755202730913894
F35.495341571408197
tp2377
sS'13133'
p2378
(F-83.166671200526295
F33.578830471241801
tp2379
sS'50009'
p2380
(F-71.736225537185803
F44.727997425780401
tp2381
sS'40139'
p2382
(F-101.490052004264
F36.747894369550501
tp2383
sS'13139'
p2384
(F-83.819669891020297
F34.316898591486002
tp2385
sS'55053'
p2386
(F-90.8052578831945
F44.319168670267601
tp2387
sS'53069'
p2388
(F-123.42412648836699
F46.2919156704342
tp2389
sS'54013'
p2390
(F-81.117578125297698
F38.844532630938197
tp2391
sS'54011'
p2392
(F-82.241712169492303
F38.4203060304541
tp2393
sS'54017'
p2394
(F-80.706972149891897
F39.2691746616496
tp2395
sS'54015'
p2396
(F-81.075074203263398
F38.462523109269597
tp2397
sS'54019'
p2398
(F-81.0811579532254
F38.028772507135997
tp2399
sS'01127'
p2400
(F-87.297323849892194
F33.803311231967797
tp2401
sS'48485'
p2402
(F-98.703607596115205
F33.987903178796103
tp2403
sS'48487'
p2404
(F-99.241008742643103
F34.080776650454702
tp2405
sS'48481'
p2406
(F-96.222096426174701
F29.277882151219998
tp2407
sS'48483'
p2408
(F-100.269768965514
F35.4012129006992
tp2409
sS'38015'
p2410
(F-100.46874192931
F46.977383908730602
tp2411
sS'38017'
p2412
(F-97.248047179912405
F46.932974992344697
tp2413
sS'05049'
p2414
(F-91.818225928701096
F36.381657239867202
tp2415
sS'48489'
p2416
(F-97.670216818314103
F26.468540826667901
tp2417
sS'38013'
p2418
(F-102.518297577846
F48.790996866575497
tp2419
sS'48447'
p2420
(F-99.212357724853604
F33.177461883587299
tp2421
sS'05047'
p2422
(F-93.890638186968403
F35.512319628223203
tp2423
sS'48169'
p2424
(F-101.298456774154
F33.179866454879303
tp2425
sS'30007'
p2426
(F-111.495504710105
F46.332418827898998
tp2427
sS'31029'
p2428
(F-101.697983265536
F40.524176823788601
tp2429
sS'30005'
p2430
(F-108.95858221304201
F48.432707225993902
tp2431
sS'30003'
p2432
(F-107.489713362202
F45.4234588863469
tp2433
sS'17051'
p2434
(F-89.024132989156598
F39.000187651461502
tp2435
sS'31023'
p2436
(F-97.131757562678303
F41.226079011686501
tp2437
sS'56019'
p2438
(F-106.58467318800101
F44.038799086348
tp2439
sS'31021'
p2440
(F-96.328615315998306
F41.851530493845203
tp2441
sS'31027'
p2442
(F-97.252413939088896
F42.599255431755502
tp2443
sS'31025'
p2444
(F-96.140875597089305
F40.909711543855799
tp2445
sS'30009'
p2446
(F-109.028131631973
F45.227371933080498
tp2447
sS'23003'
p2448
(F-68.598904279382495
F46.658916148515701
tp2449
sS'23001'
p2450
(F-70.206471210035303
F44.165791028734603
tp2451
sS'28069'
p2452
(F-88.641152723077795
F32.754559065575499
tp2453
sS'23007'
p2454
(F-70.444007389115001
F44.974032091570997
tp2455
sS'31159'
p2456
(F-97.139518859154805
F40.872381551815103
tp2457
sS'23005'
p2458
(F-70.403566044025197
F43.848563974146202
tp2459
sS'28065'
p2460
(F-89.823011832552098
F31.569673399935802
tp2461
sS'28067'
p2462
(F-89.168808578143299
F31.622556860805901
tp2463
sS'23009'
p2464
(F-68.348409370195895
F44.689026776139301
tp2465
sS'31153'
p2466
(F-96.111951221262103
F41.112906984823198
tp2467
sS'31151'
p2468
(F-97.140921560876393
F40.524065810632699
tp2469
sS'27025'
p2470
(F-92.908333031700593
F45.502468738098102
tp2471
sS'27027'
p2472
(F-96.490651851024694
F46.892350837708399
tp2473
sS'27021'
p2474
(F-94.325348003462196
F46.949579108811101
tp2475
sS'27023'
p2476
(F-95.566687123708405
F45.0223308976909
tp2477
sS'29153'
p2478
(F-92.444682456927296
F36.649315704253901
tp2479
sS'47063'
p2480
(F-83.266684737692202
F36.217135447331501
tp2481
sS'47061'
p2482
(F-85.722591043438598
F35.388393239835601
tp2483
sS'27029'
p2484
(F-95.379030159584602
F47.577546909042503
tp2485
sS'47065'
p2486
(F-85.164797833159597
F35.180829855056302
tp2487
sS'55073'
p2488
(F-89.759088899122702
F44.898296209301201
tp2489
sS'55071'
p2490
(F-87.809666563289696
F44.119930012955798
tp2491
sS'55077'
p2492
(F-89.398723429505594
F43.819556801140003
tp2493
sS'51009'
p2494
(F-79.145110159063194
F37.604770712996803
tp2495
sS'55075'
p2496
(F-88.033342854316004
F45.382967396648098
tp2497
sS'51007'
p2498
(F-77.976132669694806
F37.335995520780003
tp2499
sS'19135'
p2500
(F-92.868997956992004
F41.0298001779827
tp2501
sS'55079'
p2502
(F-87.966539014501393
F43.007169058098
tp2503
sS'51003'
p2504
(F-78.555559470667703
F38.023115242655003
tp2505
sS'40133'
p2506
(F-96.615521152809094
F35.167486454978103
tp2507
sS'51001'
p2508
(F-75.630316642681194
F37.7634287344369
tp2509
sS'50023'
p2510
(F-72.614941942014795
F44.273452122810603
tp2511
sS'50021'
p2512
(F-73.036618011785393
F43.580075628731997
tp2513
sS'50027'
p2514
(F-72.586213758920806
F43.580003622794102
tp2515
sS'50025'
p2516
(F-72.713801514961503
F42.990622664671299
tp2517
sS'40137'
p2518
(F-97.851479344842303
F34.485599747584899
tp2519
sS'47117'
p2520
(F-86.765018945562304
F35.468856626730698
tp2521
sS'47115'
p2522
(F-85.622078831353207
F35.1293381154792
tp2523
sS'47113'
p2524
(F-88.8384645956057
F35.608146682723998
tp2525
sS'40031'
p2526
(F-98.471658112195598
F34.6620949235719
tp2527
sS'47119'
p2528
(F-87.077028954643893
F35.616952591997801
tp2529
sS'27111'
p2530
(F-95.707992030339994
F46.408808729576101
tp2531
sS'01131'
p2532
(F-87.308192414016801
F31.989302906142001
tp2533
sS'27115'
p2534
(F-92.741333764852897
F46.120760981924803
tp2535
sS'27117'
p2536
(F-96.258648824019801
F44.023008585993303
tp2537
sS'27119'
p2538
(F-96.401863488987502
F47.773857999696197
tp2539
sS'40035'
p2540
(F-95.208484082236794
F36.761725432961697
tp2541
sS'28115'
p2542
(F-89.037389053311003
F34.225436695976597
tp2543
sS'19009'
p2544
(F-94.905818048956604
F41.684602647998098
tp2545
sS'39059'
p2546
(F-81.4942557475689
F40.052033542107097
tp2547
sS'28111'
p2548
(F-88.992347023423903
F31.172036672624799
tp2549
sS'28113'
p2550
(F-90.404174048384903
F31.174854282294898
tp2551
sS'19003'
p2552
(F-94.699176701544104
F41.028966972262999
tp2553
sS'39053'
p2554
(F-82.316930538188103
F38.824728788210201
tp2555
sS'19001'
p2556
(F-94.470965254226499
F41.330738106019098
tp2557
sS'40037'
p2558
(F-96.370949570731199
F35.902682315552198
tp2559
sS'19007'
p2560
(F-92.868602657369607
F40.7431715977526
tp2561
sS'39057'
p2562
(F-83.889889963351905
F39.691464169870201
tp2563
sS'19005'
p2564
(F-91.378052461104502
F43.284283058800099
tp2565
sS'47139'
p2566
(F-84.523324806766396
F35.119885233490201
tp2567
sS'17179'
p2568
(F-89.513425421724705
F40.507524212438
tp2569
sS'12079'
p2570
(F-83.470124209243906
F30.444121681071099
tp2571
sS'12077'
p2572
(F-84.882896408173707
F30.241316266031699
tp2573
sS'12075'
p2574
(F-82.7432144135078
F29.318645261876899
tp2575
sS'12073'
p2576
(F-84.277905039662599
F30.458040284214
tp2577
sS'12071'
p2578
(F-81.819960272311803
F26.579116112517902
tp2579
sS'51177'
p2580
(F-77.656012797051901
F38.1850328279141
tp2581
sS'49011'
p2582
(F-112.111454152091
F40.990024465792096
tp2583
sS'51175'
p2584
(F-77.106097274439804
F36.720427881781902
tp2585
sS'51173'
p2586
(F-81.537061756476305
F36.843872097567399
tp2587
sS'51171'
p2588
(F-78.570832575567906
F38.858318910533796
tp2589
sS'26111'
p2590
(F-84.388116660855999
F43.646841377204098
tp2591
sS'51179'
p2592
(F-77.458045994541806
F38.420693334356699
tp2593
sS'51775'
p2594
(F-80.055366189092098
F37.286399565188802
tp2595
sS'42093'
p2596
(F-76.658587251769603
F41.027865846136301
tp2597
sS'51770'
p2598
(F-79.958052128296401
F37.278406812739703
tp2599
sS'49015'
p2600
(F-110.700609712038
F38.996748258308898
tp2601
sS'46083'
p2602
(F-96.721769709067303
F43.278927916064902
tp2603
sS'46081'
p2604
(F-103.792284099255
F44.358641809510097
tp2605
sS'46087'
p2606
(F-97.368444632678504
F43.674299486819599
tp2607
sS'26115'
p2608
(F-83.537454677382001
F41.9287097697352
tp2609
sS'46085'
p2610
(F-99.8473758210651
F43.895826998735501
tp2611
sS'49055'
p2612
(F-110.903855549962
F38.324354758485299
tp2613
sS'20135'
p2614
(F-99.916149290938193
F38.479418847744597
tp2615
sS'46089'
p2616
(F-99.221404243109703
F45.766406629313799
tp2617
sS'49051'
p2618
(F-111.168153620892
F40.330781321999702
tp2619
sS'49053'
p2620
(F-113.504769387908
F37.280376689841603
tp2621
sS'45077'
p2622
(F-82.725200073073196
F34.887706654826196
tp2623
sS'21079'
p2624
(F-84.537662867517398
F37.639598002156603
tp2625
sS'21075'
p2626
(F-89.144076687786594
F36.5559544910178
tp2627
sS'21077'
p2628
(F-84.859284477312201
F38.756844701075003
tp2629
sS'21071'
p2630
(F-82.745704499550001
F37.557117865797501
tp2631
sS'21073'
p2632
(F-84.877051756012193
F38.239167791534399
tp2633
sS'26089'
p2634
(F-85.789997168393
F44.915139216159098
tp2635
sS'26085'
p2636
(F-85.801696519655806
F43.990040152412298
tp2637
sS'26087'
p2638
(F-83.221784993525802
F43.090148586025897
tp2639
sS'26081'
p2640
(F-85.549293244042602
F43.032149874092603
tp2641
sS'26083'
p2642
(F-88.128076756516094
F47.362080876659803
tp2643
sS'26057'
p2644
(F-84.604925019331304
F43.292734802798201
tp2645
sS'50011'
p2646
(F-72.9120066738096
F44.857493845706998
tp2647
sS'21219'
p2648
(F-87.179237505988397
F36.835678842510703
tp2649
sS'05089'
p2650
(F-92.684223682893105
F36.268387192189003
tp2651
sS'17149'
p2652
(F-90.886282919721907
F39.622495090781598
tp2653
sS'21211'
p2654
(F-85.194775969874499
F38.215450081067402
tp2655
sS'17145'
p2656
(F-89.366980143484199
F38.083770029949001
tp2657
sS'21213'
p2658
(F-86.582241520993307
F36.741949602186402
tp2659
sS'05081'
p2660
(F-94.234344419391206
F33.7005103540479
tp2661
sS'21215'
p2662
(F-85.327830813122006
F38.032521056728299
tp2663
sS'17141'
p2664
(F-89.320654698311102
F42.042643444261103
tp2665
sS'21217'
p2666
(F-85.327937963632394
F37.3664696121185
tp2667
sS'17143'
p2668
(F-89.759978656403902
F40.788056769244697
tp2669
sS'21189'
p2670
(F-83.683102676476295
F37.419209599292103
tp2671
sS'13309'
p2672
(F-82.7245808755235
F32.117050720495499
tp2673
sS'21181'
p2674
(F-84.015295212649605
F38.3355537771995
tp2675
sS'13307'
p2676
(F-84.551045094073601
F32.046656904836198
tp2677
sS'21183'
p2678
(F-86.848877937412396
F37.478186438534202
tp2679
sS'13305'
p2680
(F-81.916726279154503
F31.551446787840899
tp2681
sS'21185'
p2682
(F-85.448536842857493
F38.399479218115999
tp2683
sS'13303'
p2684
(F-82.795910643796404
F32.969536812507698
tp2685
sS'21187'
p2686
(F-84.828104852938395
F38.519663415516803
tp2687
sS'13301'
p2688
(F-82.676755019913401
F33.408949675165701
tp2689
sS'12095'
p2690
(F-81.323523279716895
F28.5144289016391
tp2691
sS'17093'
p2692
(F-88.428834791553001
F41.590537612374703
tp2693
sS'12097'
p2694
(F-81.149463337799006
F28.062679618900098
tp2695
sS'17091'
p2696
(F-87.861825008669001
F41.137709174983897
tp2697
sS'12091'
p2698
(F-86.591754887103704
F30.691291662351201
tp2699
sS'17097'
p2700
(F-88.003624857730401
F42.323370346449302
tp2701
sS'12093'
p2702
(F-80.888634955208005
F27.386418377786399
tp2703
sS'17095'
p2704
(F-90.213268083183607
F40.931800487920697
tp2705
sS'17099'
p2706
(F-88.885956424633093
F41.343985931164497
tp2707
sS'12099'
p2708
(F-80.465478282540701
F26.647601792627999
tp2709
sS'48479'
p2710
(F-99.331519402241199
F27.761112698124499
tp2711
sS'48471'
p2712
(F-95.572292810097807
F30.739018099078599
tp2713
sS'48473'
p2714
(F-95.9876503952718
F30.010821905962999
tp2715
sS'48475'
p2716
(F-103.102500640617
F31.5094914675811
tp2717
sS'48477'
p2718
(F-96.403448997134504
F30.214524225410798
tp2719
sS'39171'
p2720
(F-84.588158063367402
F41.5603151668046
tp2721
sS'20109'
p2722
(F-101.148409552372
F38.917303938951299
tp2723
sS'38019'
p2724
(F-98.464857323166797
F48.772341885331599
tp2725
sS'20105'
p2726
(F-98.207701348598803
F39.045316905093998
tp2727
sS'20103'
p2728
(F-95.037980329639197
F39.199295334810998
tp2729
sS'20101'
p2730
(F-100.466427385138
F38.481331946710696
tp2731
sS'19145'
p2732
(F-95.150182806700201
F40.7391416985094
tp2733
sS'55021'
p2734
(F-89.333740561014196
F43.466634742772897
tp2735
sS'19143'
p2736
(F-95.623667323320504
F43.378579119367302
tp2737
sS'48273'
p2738
(F-97.750162210939294
F27.433232178662401
tp2739
sS'13239'
p2740
(F-85.018770025818597
F31.867347385442201
tp2741
sS'48277'
p2742
(F-95.571197137159999
F33.667250211809801
tp2743
sS'48275'
p2744
(F-99.741427007915505
F33.606092354169498
tp2745
sS'13233'
p2746
(F-85.188142907180904
F34.001790864039101
tp2747
sS'48279'
p2748
(F-102.35171252809199
F34.068592876723201
tp2749
sS'13237'
p2750
(F-83.372793736102906
F33.321766730142599
tp2751
sS'13235'
p2752
(F-83.475953407591803
F32.232265143999498
tp2753
sS'41055'
p2754
(F-120.68931643134999
F45.4051947437693
tp2755
sS'41057'
p2756
(F-123.712807227016
F45.463477633675801
tp2757
sS'44009'
p2758
(F-71.623965883109307
F41.478803615869197
tp2759
sS'01079'
p2760
(F-87.310989213044607
F34.521675662122398
tp2761
sS'41053'
p2762
(F-123.413371140016
F44.903501887669499
tp2763
sS'40059'
p2764
(F-99.667305966297405
F36.788682234762099
tp2765
sS'44005'
p2766
(F-71.215705253204604
F41.5564531738464
tp2767
sS'40057'
p2768
(F-99.846272779157104
F34.744100335689097
tp2769
sS'44007'
p2770
(F-71.580045356954003
F41.872140339167302
tp2771
sS'08125'
p2772
(F-102.424248564232
F40.002936189466901
tp2773
sS'41059'
p2774
(F-118.736892325657
F45.591771947403799
tp2775
sS'40053'
p2776
(F-97.786131149304794
F36.796140143209598
tp2777
sS'44003'
p2778
(F-71.592874535229001
F41.672190273436797
tp2779
sS'08121'
p2780
(F-103.201248808394
F39.970998169703897
tp2781
sS'48019'
p2782
(F-99.246305363899694
F29.747210623180202
tp2783
sS'29099'
p2784
(F-90.537734108846806
F38.261064574098803
tp2785
sS'29097'
p2786
(F-94.340610213342003
F37.203556934264299
tp2787
sS'48013'
p2788
(F-98.527155650818898
F28.8935078167546
tp2789
sS'29095'
p2790
(F-94.346130235183907
F39.008505118712897
tp2791
sS'48011'
p2792
(F-101.357383910208
F34.964942917165402
tp2793
sS'19187'
p2794
(F-94.181782550905197
F42.427952938220997
tp2795
sS'48017'
p2796
(F-102.82987134896899
F34.068567703469697
tp2797
sS'29091'
p2798
(F-91.886518612778303
F36.774018158602999
tp2799
sS'48015'
p2800
(F-96.277894766537599
F29.887005794878998
tp2801
sS'24003'
p2802
(F-76.605071139226695
F39.006464525295598
tp2803
sS'24001'
p2804
(F-78.698978070381301
F39.621456762682399
tp2805
sS'20039'
p2806
(F-100.45993939932499
F39.7847370565392
tp2807
sS'24005'
p2808
(F-76.640194932877804
F39.463417087085197
tp2809
sS'26163'
p2810
(F-83.282101082428099
F42.281893570753802
tp2811
sS'20033'
p2812
(F-99.271844085361394
F37.191262969466898
tp2813
sS'24009'
p2814
(F-76.568675079059702
F38.543362843563997
tp2815
sS'20031'
p2816
(F-95.734105383713995
F38.236864586297898
tp2817
sS'20037'
p2818
(F-94.851817004978699
F37.507317630333802
tp2819
sS'20035'
p2820
(F-96.837533760789597
F37.237709185151097
tp2821
sS'37087'
p2822
(F-82.982250419896502
F35.556052940318203
tp2823
sS'13127'
p2824
(F-81.540717016838897
F31.230897524091699
tp2825
sS'37085'
p2826
(F-78.869291984859004
F35.368611745384598
tp2827
sS'40121'
p2828
(F-95.748365997666099
F34.923933916096203
tp2829
sS'37083'
p2830
(F-77.6518616468245
F36.257485371408897
tp2831
sS'40127'
p2832
(F-95.375797219428406
F34.4162125973508
tp2833
sS'37081'
p2834
(F-79.789002642161606
F36.079448044901497
tp2835
sS'40125'
p2836
(F-96.948337628763497
F35.206699257733398
tp2837
sS'40129'
p2838
(F-99.695769206917205
F35.688337633231697
tp2839
sS'37089'
p2840
(F-82.479953550507702
F35.336359374892702
tp2841
sS'13129'
p2842
(F-84.875703083200094
F34.503356372987803
tp2843
sS'13047'
p2844
(F-85.138247597269299
F34.9036280533537
tp2845
sS'54009'
p2846
(F-80.576452129965702
F40.273868865754402
tp2847
sS'54005'
p2848
(F-81.711207236368907
F38.0229897232553
tp2849
sS'54007'
p2850
(F-80.7192490548953
F38.699861970188302
tp2851
sS'54001'
p2852
(F-80.0030185204768
F39.1329500917019
tp2853
sS'54003'
p2854
(F-78.027514319159295
F39.464068706879303
tp2855
sS'48497'
p2856
(F-97.654476374361806
F33.215919013528797
tp2857
sS'48495'
p2858
(F-103.048283283526
F31.850044662181801
tp2859
sS'48493'
p2860
(F-98.086571402647493
F29.173991970872599
tp2861
sS'48491'
p2862
(F-97.600744822063305
F30.648030884070199
tp2863
sS'38007'
p2864
(F-103.37638445834
F47.023416922162603
tp2865
sS'38005'
p2866
(F-99.366005109621995
F48.069380950175201
tp2867
sS'38003'
p2868
(F-98.0715736368454
F46.936108587205503
tp2869
sS'48499'
p2870
(F-95.382072052628104
F32.786404517036402
tp2871
sS'45075'
p2872
(F-80.800301781927004
F33.439001250033797
tp2873
sS'30033'
p2874
(F-106.992884174363
F47.277623377905698
tp2875
sS'30031'
p2876
(F-111.17045287198199
F45.540679727009
tp2877
sS'30037'
p2878
(F-109.175152112094
F46.381220488563002
tp2879
sS'30035'
p2880
(F-112.99473458244999
F48.705136311134098
tp2881
sS'30039'
p2882
(F-113.44036422315099
F46.404482615665998
tp2883
sS'18035'
p2884
(F-85.396899838921399
F40.227545562042401
tp2885
sS'18037'
p2886
(F-86.879806303623099
F38.364271360478398
tp2887
sS'18031'
p2888
(F-85.501108880959094
F39.307001285777297
tp2889
sS'18033'
p2890
(F-84.999066445231193
F41.397568851916397
tp2891
sS'18039'
p2892
(F-85.858747786082901
F41.597387617866801
tp2893
sS'30001'
p2894
(F-112.89909504224801
F45.132834883041703
tp2895
sS'29075'
p2896
(F-94.409878834528996
F40.212067011833803
tp2897
sS'31149'
p2898
(F-99.449911590079594
F42.421313487612302
tp2899
sS'29077'
p2900
(F-93.341992687466501
F37.258055989579901
tp2901
sS'29071'
p2902
(F-91.075027273135703
F38.411116963326101
tp2903
sS'29073'
p2904
(F-91.507924305931795
F38.440878718850698
tp2905
sS'28079'
p2906
(F-89.524069219554406
F32.753537426324201
tp2907
sS'31141'
p2908
(F-97.521137936923395
F41.571294772800101
tp2909
sS'28075'
p2910
(F-88.662544470171099
F32.404263780099598
tp2911
sS'29079'
p2912
(F-93.565343992666996
F40.113932901622697
tp2913
sS'31145'
p2914
(F-100.47687805021
F40.175828377969403
tp2915
sS'23031'
p2916
(F-70.714420239678503
F43.478425908062398
tp2917
sS'28071'
p2918
(F-89.484907468917996
F34.356743777344498
tp2919
sS'47057'
p2920
(F-83.509613559208901
F36.2762575233997
tp2921
sS'47055'
p2922
(F-87.034794419690002
F35.202147128066997
tp2923
sS'47053'
p2924
(F-88.932619814249804
F35.996606811882501
tp2925
sS'47051'
p2926
(F-86.092191159832296
F35.155043586306903
tp2927
sS'47059'
p2928
(F-82.845822717915894
F36.175342869540799
tp2929
sS'27051'
p2930
(F-96.012174185574693
F45.934051668683999
tp2931
sS'27053'
p2932
(F-93.476873280207002
F45.004579143829801
tp2933
sS'27055'
p2934
(F-91.492885004878502
F43.671436840071202
tp2935
sS'27057'
p2936
(F-94.916637394715195
F47.108635965144799
tp2937
sS'27059'
p2938
(F-93.295148354464501
F45.561492643230402
tp2939
sS'50017'
p2940
(F-72.376808647935505
F44.0056567362886
tp2941
sS'51019'
p2942
(F-79.524200573641707
F37.315164104039802
tp2943
sS'50015'
p2944
(F-72.641404637789407
F44.605759324782497
tp2945
sS'50013'
p2946
(F-73.294854181110694
F44.7967586051628
tp2947
sS'55049'
p2948
(F-90.135375413152303
F43.0004803958984
tp2949
sS'55047'
p2950
(F-89.044868956968102
F43.800399023130304
tp2951
sS'51011'
p2952
(F-78.812147281515806
F37.3722211625361
tp2953
sS'55045'
p2954
(F-89.602212244978503
F42.679979437901999
tp2955
sS'51013'
p2956
(F-77.101098447383706
F38.878607185959702
tp2957
sS'55043'
p2958
(F-90.706205164299007
F42.867480404969797
tp2959
sS'51015'
p2960
(F-79.128850762809094
F38.162960539761002
tp2961
sS'51540'
p2962
(F-78.485567719079796
F38.037359505795699
tp2963
sS'19127'
p2964
(F-92.998785087592395
F42.035838567752798
tp2965
sS'35001'
p2966
(F-106.67013696705401
F35.051303431504003
tp2967
sS'31035'
p2968
(F-98.0512863927041
F40.524434737931699
tp2969
sS'35003'
p2970
(F-108.404679672461
F33.915330131985598
tp2971
sS'31037'
p2972
(F-97.086467469092796
F41.574010846649102
tp2973
sS'35005'
p2974
(F-104.46702308494601
F33.3631585668901
tp2975
sS'31031'
p2976
(F-101.118595716093
F42.544987321018802
tp2977
sS'35007'
p2978
(F-104.64682563736
F36.606110898604598
tp2979
sS'46121'
p2980
(F-100.718388674919
F43.193391411531401
tp2981
sS'35009'
p2982
(F-103.346850533149
F34.5741896148146
tp2983
sS'31039'
p2984
(F-96.787385879843796
F41.916398531738999
tp2985
sS'48117'
p2986
(F-102.60498627413899
F34.966032593351898
tp2987
sS'46123'
p2988
(F-99.883956028649607
F43.345931026843999
tp2989
sS'13229'
p2990
(F-82.212763071420994
F31.358771169945101
tp2991
sS'48115'
p2992
(F-101.947646396523
F32.7425553707509
tp2993
sS'46125'
p2994
(F-97.148669009735798
F43.3108923095376
tp2995
sS'47123'
p2996
(F-84.252775669597995
F35.442729887546101
tp2997
sS'47121'
p2998
(F-84.813397248691999
F35.512806508869197
tp2999
sS'47127'
p3000
(F-86.3587325495632
F35.284614832066801
tp3001
sS'47125'
p3002
(F-87.382812243977796
F36.496887845284803
tp3003
sS'48445'
p3004
(F-102.335161640796
F33.173800825074601
tp3005
sS'47129'
p3006
(F-84.649197480777005
F36.135006803985902
tp3007
sS'46127'
p3008
(F-96.656026585768998
F42.8325750305169
tp3009
sS'39067'
p3010
(F-81.0911240324766
F40.293825556635497
tp3011
sS'19015'
p3012
(F-93.931659246624704
F42.036545726204999
tp3013
sS'39065'
p3014
(F-83.659425283114103
F40.661517140515002
tp3015
sS'19017'
p3016
(F-92.318048691231098
F42.774590389719499
tp3017
sS'39063'
p3018
(F-83.666539126664802
F41.001921550968298
tp3019
sS'19011'
p3020
(F-92.065705008404507
F42.080205224447703
tp3021
sS'39061'
p3022
(F-84.542775671853704
F39.195538779332999
tp3023
sS'19013'
p3024
(F-92.308829333407402
F42.470093497983299
tp3025
sS'19019'
p3026
(F-91.837841307898799
F42.470783840200802
tp3027
sS'39069'
p3028
(F-84.068227151717707
F41.333879356346898
tp3029
sS'40153'
p3030
(F-99.2650159786226
F36.422621765906101
tp3031
sS'28105'
p3032
(F-88.879330478185906
F33.424949921541497
tp3033
sS'28103'
p3034
(F-88.569753908824794
F33.1101567927549
tp3035
sS'28101'
p3036
(F-89.118796909102599
F32.400240306411597
tp3037
sS'27147'
p3038
(F-93.226047057683502
F44.022340517854097
tp3039
sS'13175'
p3040
(F-82.922233136091407
F32.463651897241903
tp3041
sS'28109'
p3042
(F-89.589652778132105
F30.768703628839599
tp3043
sS'39003'
p3044
(F-84.105791775069306
F40.771539804791203
tp3045
sS'12069'
p3046
(F-81.711255431227201
F28.761553717140501
tp3047
sS'01043'
p3048
(F-86.867575724564503
F34.131943910385701
tp3049
sS'12061'
p3050
(F-80.606262715827796
F27.694298991196199
tp3051
sS'12063'
p3052
(F-85.215494012940496
F30.795429844260902
tp3053
sS'12065'
p3054
(F-83.895291994654201
F30.4375040603447
tp3055
sS'12067'
p3056
(F-83.181089635237598
F29.985499428286399
tp3057
sS'51161'
p3058
(F-80.052053637960697
F37.271328018365402
tp3059
sS'51163'
p3060
(F-79.446536434153202
F37.813593200291201
tp3061
sS'51165'
p3062
(F-78.875732893231202
F38.510628415277601
tp3063
sS'51167'
p3064
(F-82.095632616907096
F36.933766372289703
tp3065
sS'51169'
p3066
(F-82.602999224928098
F36.714226730672003
tp3067
sS'29213'
p3068
(F-93.0411351274455
F36.6547604198364
tp3069
sS'51760'
p3070
(F-77.475541440487106
F37.529436176567998
tp3071
sS'29215'
p3072
(F-91.965045331399097
F37.317302325488498
tp3073
sS'46099'
p3074
(F-96.791471995981993
F43.674156555679701
tp3075
sS'49049'
p3076
(F-111.670268084466
F40.119915433055297
tp3077
sS'46095'
p3078
(F-100.759973426494
F43.581273662359301
tp3079
sS'49045'
p3080
(F-113.13109674902999
F40.448754919316897
tp3081
sS'49043'
p3082
(F-110.955695635428
F40.8682258147224
tp3083
sS'46093'
p3084
(F-102.716860099301
F44.5668158060653
tp3085
sS'21069'
p3086
(F-83.696647131967893
F38.3701203193121
tp3087
sS'21067'
p3088
(F-84.458719511109507
F38.042314408070901
tp3089
sS'21065'
p3090
(F-83.964311920950394
F37.692443211053899
tp3091
sS'21063'
p3092
(F-83.097617144102699
F38.117903145308297
tp3093
sS'21061'
p3094
(F-86.238422159412096
F37.208798597910999
tp3095
sS'26099'
p3096
(F-82.932230736759294
F42.695537590221797
tp3097
sS'26097'
p3098
(F-85.114822517849902
F46.093015665118003
tp3099
sS'26095'
p3100
(F-85.544356965062406
F46.470652885762
tp3101
sS'26093'
p3102
(F-83.911529601464395
F42.602918096634703
tp3103
sS'26091'
p3104
(F-84.066386526908204
F41.895122525991397
tp3105
sS'30099'
p3106
(F-112.240854912693
F47.837115332816801
tp3107
sS'56041'
p3108
(F-110.547627832514
F41.287642113472799
tp3109
sS'45013'
p3110
(F-80.730175207269895
F32.3855582379013
tp3111
sS'18139'
p3112
(F-85.465752514814994
F39.619966314032197
tp3113
sS'31157'
p3114
(F-103.707941499185
F41.850563153697699
tp3115
sS'21209'
p3116
(F-84.583914721894701
F38.291553897196501
tp3117
sS'17131'
p3118
(F-90.741447897285596
F41.205335256010102
tp3119
sS'21203'
p3120
(F-84.316010859257702
F37.365054578600599
tp3121
sS'17133'
p3122
(F-90.177376702401006
F38.2785462955691
tp3123
sS'21201'
p3124
(F-84.0520383110658
F38.518820286218698
tp3125
sS'17135'
p3126
(F-89.478883024007402
F39.231034792438898
tp3127
sS'21207'
p3128
(F-85.058651433311297
F36.991090642014498
tp3129
sS'17137'
p3130
(F-90.201477061906601
F39.715561155980701
tp3131
sS'21205'
p3132
(F-83.421104324656397
F38.196256062161602
tp3133
sS'21199'
p3134
(F-84.577250020487995
F37.103865390511899
tp3135
sS'21193'
p3136
(F-83.221476300378299
F37.244302442872304
tp3137
sS'21191'
p3138
(F-84.360253390558
F38.695639040676198
tp3139
sS'21197'
p3140
(F-83.823730893758906
F37.831125494281501
tp3141
sS'21195'
p3142
(F-82.395770977264405
F37.469103672578797
tp3143
sS'12086'
p3144
(F-80.5637090847069
F25.615879631546498
tp3145
sS'12087'
p3146
(F-81.054096556024902
F25.509970936715199
tp3147
sS'12085'
p3148
(F-80.431477027824201
F27.077525456317101
tp3149
sS'12083'
p3150
(F-82.056659508756397
F29.210208086092301
tp3151
sS'12081'
p3152
(F-82.315265751467805
F27.471878365630101
tp3153
sS'12089'
p3154
(F-81.801618837863202
F30.610594603643701
tp3155
sS'48399'
p3156
(F-99.976219353779499
F31.831081847352099
tp3157
sS'17047'
p3158
(F-88.053276470577401
F38.416539008314601
tp3159
sS'36103'
p3160
(F-72.852692871795199
F40.865448769609998
tp3161
sS'17041'
p3162
(F-88.217373554171104
F39.769458125906098
tp3163
sS'39161'
p3164
(F-84.586115911989395
F40.855407383576903
tp3165
sS'17043'
p3166
(F-88.085632493420206
F41.851945904063101
tp3167
sS'48391'
p3168
(F-97.165625688469802
F28.325258700619699
tp3169
sS'20131'
p3170
(F-96.014080402649
F39.783411551745701
tp3171
sS'13035'
p3172
(F-83.957175218951903
F33.287884397332
tp3173
sS'20137'
p3174
(F-99.903486005293502
F39.784381498288496
tp3175
sS'36039'
p3176
(F-74.1227196263103
F42.276513163065999
tp3177
sS'48397'
p3178
(F-96.407786967641201
F32.897722388449402
tp3179
sS'13207'
p3180
(F-83.918658477877401
F33.013919449644703
tp3181
sS'36109'
p3182
(F-76.4736374908247
F42.452026716375798
tp3183
sS'13205'
p3184
(F-84.194275469824106
F31.225320309030199
tp3185
sS'13201'
p3186
(F-84.730796346586899
F31.164007543927401
tp3187
sS'30071'
p3188
(F-107.913256059136
F48.2591888709984
tp3189
sS'13209'
p3190
(F-82.534773879856502
F32.173393636750198
tp3191
sS'36065'
p3192
(F-75.4358506812424
F43.241736128793697
tp3193
sS'48249'
p3194
(F-98.089866527978103
F27.7313507137813
tp3195
sS'48247'
p3196
(F-98.697331910254405
F27.043419696005
tp3197
sS'48245'
p3198
(F-94.162930537871404
F29.884050909678301
tp3199
sS'48243'
p3200
(F-104.13996239401899
F30.715374970187899
tp3201
sS'29039'
p3202
(F-93.856618904107705
F37.723835655323903
tp3203
sS'48241'
p3204
(F-94.025112590582594
F30.744026104184702
tp3205
sS'45015'
p3206
(F-79.950994187408
F33.197679916936004
tp3207
sS'41047'
p3208
(F-122.584563671608
F44.903286209752501
tp3209
sS'45017'
p3210
(F-80.780302784792397
F33.674884302642901
tp3211
sS'41045'
p3212
(F-117.62308516322
F43.193363936066397
tp3213
sS'48023'
p3214
(F-99.213527276167397
F33.616515158496803
tp3215
sS'41043'
p3216
(F-122.534243858868
F44.488646594828403
tp3217
sS'48021'
p3218
(F-97.312021869423106
F30.103599709296599
tp3219
sS'46015'
p3220
(F-99.0809408869451
F43.718069523811003
tp3221
sS'08113'
p3222
(F-108.40575795174399
F38.003738174507802
tp3223
sS'08111'
p3224
(F-107.676156226578
F37.764027856705198
tp3225
sS'40067'
p3226
(F-97.835874959089196
F34.1110319385933
tp3227
sS'22015'
p3228
(F-93.605045861707595
F32.678923678641503
tp3229
sS'40065'
p3230
(F-99.414814201844294
F34.587980173840101
tp3231
sS'41049'
p3232
(F-119.58435522338701
F45.418819166204301
tp3233
sS'20007'
p3234
(F-98.684822894373099
F37.228861600800897
tp3235
sS'29089'
p3236
(F-92.696272759153999
F39.142500415204601
tp3237
sS'20005'
p3238
(F-95.313487988629106
F39.531749465953503
tp3239
sS'46017'
p3240
(F-99.204871513951304
F44.076304399808699
tp3241
sS'20003'
p3242
(F-95.293343239588395
F38.214182338074799
tp3243
sS'20001'
p3244
(F-95.301359484617393
F37.885720946244703
tp3245
sS'29081'
p3246
(F-93.992040325852201
F40.354669181444102
tp3247
sS'29083'
p3248
(F-93.792756680578194
F38.385177077389997
tp3249
sS'29085'
p3250
(F-93.320720825170397
F37.940800967605
tp3251
sS'20009'
p3252
(F-98.756452831217999
F38.478959521735597
tp3253
sS'29087'
p3254
(F-95.215537303725995
F40.094401941849
tp3255
sS'24019'
p3256
(F-76.011852642625101
F38.4870786136579
tp3257
sS'24015'
p3258
(F-75.940739590215799
F39.571241037641499
tp3259
sS'24017'
p3260
(F-76.992156697232403
F38.507294636432697
tp3261
sS'24011'
p3262
(F-75.831554818548398
F38.871713077588097
tp3263
sS'24013'
p3264
(F-77.022546471965299
F39.562883268777497
tp3265
sS'13113'
p3266
(F-84.494180586945205
F33.413950948169798
tp3267
sS'37091'
p3268
(F-76.981967340518807
F36.359076900815502
tp3269
sS'13111'
p3270
(F-84.319833690019607
F34.864083963732298
tp3271
sS'37093'
p3272
(F-79.237087722761203
F35.0173675927049
tp3273
sS'13117'
p3274
(F-84.125020239222394
F34.225543549359301
tp3275
sS'37095'
p3276
(F-76.2550021859238
F35.535900069074401
tp3277
sS'13115'
p3278
(F-85.214256109615903
F34.263190772106498
tp3279
sS'12007'
p3280
(F-82.168741759430404
F29.949965625987101
tp3281
sS'40117'
p3282
(F-96.699298699518707
F36.316917494636201
tp3283
sS'37099'
p3284
(F-83.140831434247602
F35.287394620084903
tp3285
sS'40115'
p3286
(F-94.810446698255603
F36.835522998987997
tp3287
sS'13165'
p3288
(F-81.963549379654907
F32.792447211377201
tp3289
sS'40113'
p3290
(F-96.398498310557997
F36.629170390747099
tp3291
sS'40111'
p3292
(F-95.9643312803084
F35.646659760303201
tp3293
sS'09015'
p3294
(F-71.987454002889706
F41.830019311480797
tp3295
sS'12003'
p3296
(F-82.2846191359843
F30.331106356300999
tp3297
sS'54079'
p3298
(F-81.908990105333103
F38.508617261332802
tp3299
sS'54071'
p3300
(F-79.350892526405303
F38.680748121846399
tp3301
sS'09011'
p3302
(F-72.101452596438705
F41.486606194400601
tp3303
sS'54073'
p3304
(F-81.160607743676806
F39.3709555903827
tp3305
sS'54075'
p3306
(F-80.007786032972504
F38.331783260330099
tp3307
sS'54077'
p3308
(F-79.668161702763697
F39.469326059782297
tp3309
sS'38039'
p3310
(F-98.237049315631893
F47.4572826716104
tp3311
sS'09013'
p3312
(F-72.336498429578299
F41.855015014670499
tp3313
sS'38033'
p3314
(F-103.846629498393
F46.940304101570199
tp3315
sS'38031'
p3316
(F-98.882988001907904
F47.4570677233136
tp3317
sS'54047'
p3318
(F-81.653606646916799
F37.378456164821003
tp3319
sS'38037'
p3320
(F-101.63971547532999
F46.358277272949302
tp3321
sS'38035'
p3322
(F-97.456971276044996
F47.921908634498699
tp3323
sS'47067'
p3324
(F-83.221894422180796
F36.523612816035403
tp3325
sS'08017'
p3326
(F-102.60351117282001
F38.827949036561797
tp3327
sS'51790'
p3328
(F-79.060808633660002
F38.159311816450398
tp3329
sS'34019'
p3330
(F-74.912225041650601
F40.567272581326797
tp3331
sS'30029'
p3332
(F-114.049667862688
F48.295145707383199
tp3333
sS'34011'
p3334
(F-75.1108813895422
F39.373509803835901
tp3335
sS'30025'
p3336
(F-104.417410994565
F46.333971872139898
tp3337
sS'34013'
p3338
(F-74.246852712019901
F40.787075496279897
tp3339
sS'30027'
p3340
(F-109.224482225797
F47.263606868638298
tp3341
sS'34015'
p3342
(F-75.141643051648501
F39.717296330205002
tp3343
sS'30021'
p3344
(F-104.899499235679
F47.266378932930699
tp3345
sS'34017'
p3346
(F-74.077692341598606
F40.734947496262897
tp3347
sS'30023'
p3348
(F-113.067925695806
F46.060728079426603
tp3349
sS'54105'
p3350
(F-81.378689901113205
F39.022446040372799
tp3351
sS'18027'
p3352
(F-87.0720467141699
F38.702403899956401
tp3353
sS'54107'
p3354
(F-81.515032891605898
F39.211165199098403
tp3355
sS'18025'
p3356
(F-86.451717032013093
F38.2923719264206
tp3357
sS'54101'
p3358
(F-80.421865219845003
F38.494705919909599
tp3359
sS'18023'
p3360
(F-86.475142750485901
F40.301695179955601
tp3361
sS'54103'
p3362
(F-80.639109139389603
F39.605277565802098
tp3363
sS'18021'
p3364
(F-87.115762944234007
F39.392772240023497
tp3365
sS'54109'
p3366
(F-81.549192500463107
F37.609610612559003
tp3367
sS'18029'
p3368
(F-84.973323911267599
F39.145225705284901
tp3369
sS'38105'
p3370
(F-103.480225081106
F48.3436849473173
tp3371
sS'38103'
p3372
(F-99.660970592013896
F47.587523672366103
tp3373
sS'19139'
p3374
(F-91.112692211580793
F41.483923634166601
tp3375
sS'38101'
p3376
(F-101.541799447728
F48.2217378257793
tp3377
sS'19137'
p3378
(F-95.1563513591245
F41.030153324144599
tp3379
sS'28049'
p3380
(F-90.442845977591801
F32.2667020622943
tp3381
sS'29065'
p3382
(F-91.5079135075609
F37.606631406277202
tp3383
sS'29063'
p3384
(F-94.404716343378396
F39.893172860417103
tp3385
sS'29061'
p3386
(F-93.985487667386906
F39.960761131794399
tp3387
sS'28043'
p3388
(F-89.802000565777206
F33.769901865951198
tp3389
sS'23021'
p3390
(F-69.284596314162201
F45.837345825608097
tp3391
sS'28041'
p3392
(F-88.639160870378404
F31.214246567500901
tp3393
sS'23023'
p3394
(F-69.854612076251499
F43.9598888781642
tp3395
sS'28047'
p3396
(F-89.116592805818698
F30.514010181806199
tp3397
sS'23025'
p3398
(F-69.958903942618207
F45.513909517146999
tp3399
sS'28045'
p3400
(F-89.488509293279904
F30.416005040022899
tp3401
sS'23027'
p3402
(F-69.150707321643097
F44.5070551946935
tp3403
sS'47041'
p3404
(F-85.832775808826199
F35.979853918352397
tp3405
sS'47043'
p3406
(F-87.356710955039105
F36.149001610335503
tp3407
sS'47045'
p3408
(F-89.413775974257305
F36.059050139660101
tp3409
sS'47047'
p3410
(F-89.414368048484306
F35.1971041724522
tp3411
sS'47049'
p3412
(F-84.932446692975702
F36.380477258822502
tp3413
sS'51550'
p3414
(F-76.302377339490306
F36.677780322924797
tp3415
sS'27043'
p3416
(F-93.947928909690305
F43.673919202966196
tp3417
sS'27041'
p3418
(F-95.453527422452296
F45.933721352168902
tp3419
sS'19131'
p3420
(F-92.789013000066603
F43.356363788300499
tp3421
sS'27045'
p3422
(F-92.090166219558199
F43.6739525753677
tp3423
sS'21233'
p3424
(F-87.683158507433106
F37.518443261585602
tp3425
sS'27049'
p3426
(F-92.722568843959607
F44.409858757274201
tp3427
sS'55059'
p3428
(F-88.042363435568703
F42.576923490100299
tp3429
sS'50003'
p3430
(F-73.092984084838406
F43.035415464022201
tp3431
sS'50005'
p3432
(F-72.102195176887804
F44.464689349934602
tp3433
sS'50007'
p3434
(F-73.080913058680395
F44.4610016707298
tp3435
sS'55051'
p3436
(F-90.242062844525293
F46.2622660846447
tp3437
sS'51570'
p3438
(F-77.396936778587204
F37.265018741488802
tp3439
sS'55055'
p3440
(F-88.775889730868897
F43.020826516756898
tp3441
sS'55057'
p3442
(F-90.113771288599395
F43.924593998467799
tp3443
sS'31041'
p3444
(F-99.726146575698607
F41.394276941422802
tp3445
sS'35013'
p3446
(F-106.832810615599
F32.352671625679399
tp3447
sS'31043'
p3448
(F-96.564569041930199
F42.391133157157697
tp3449
sS'35011'
p3450
(F-104.411969173377
F34.342453662192597
tp3451
sS'31045'
p3452
(F-103.13545112060601
F42.719719513835102
tp3453
sS'35017'
p3454
(F-108.382295062151
F32.7389686177493
tp3455
sS'31047'
p3456
(F-99.819568904139302
F40.869948957947202
tp3457
sS'35015'
p3458
(F-104.304210217657
F32.471471699780103
tp3459
sS'31049'
p3460
(F-102.33378428013
F41.111556153920397
tp3461
sS'35019'
p3462
(F-104.790766434224
F34.863242541597103
tp3463
sS'08119'
p3464
(F-105.161776932948
F38.882158635594202
tp3465
sS'51680'
p3466
(F-79.191143835568496
F37.400405733218797
tp3467
sS'51683'
p3468
(F-77.483945312767602
F38.748007926142598
tp3469
sS'51685'
p3470
(F-77.444766484838397
F38.771731119669099
tp3471
sS'53043'
p3472
(F-118.41876311613299
F47.576237884873997
tp3473
sS'47135'
p3474
(F-87.8589500276493
F35.642635231352202
tp3475
sS'47137'
p3476
(F-85.074881324426499
F36.558402650059598
tp3477
sS'47131'
p3478
(F-89.148782231026104
F36.358209039148399
tp3479
sS'47133'
p3480
(F-85.288087166983004
F36.344977407660501
tp3481
sS'19061'
p3482
(F-90.882456558316406
F42.468823132861097
tp3483
sS'39071'
p3484
(F-83.600983037606099
F39.184714497177097
tp3485
sS'19063'
p3486
(F-94.678424512476695
F43.377941994300201
tp3487
sS'39073'
p3488
(F-82.479258725195194
F39.497064179789497
tp3489
sS'19065'
p3490
(F-91.844358335352098
F42.862608107465803
tp3491
sS'39075'
p3492
(F-81.929341465144006
F40.561205044558299
tp3493
sS'19067'
p3494
(F-92.789005682856896
F43.0599335527899
tp3495
sS'39077'
p3496
(F-82.598406194904697
F41.146152345676803
tp3497
sS'19069'
p3498
(F-93.262471511645998
F42.732547984387097
tp3499
sS'39079'
p3500
(F-82.618417642851895
F39.019657139754599
tp3501
sS'28133'
p3502
(F-90.588624013028294
F33.602309346438901
tp3503
sS'28131'
p3504
(F-89.1176673449704
F30.789967359010902
tp3505
sS'28137'
p3506
(F-89.944786758420904
F34.650331055342903
tp3507
sS'28135'
p3508
(F-90.173238012161093
F33.950478802287897
tp3509
sS'28139'
p3510
(F-88.908887845872599
F34.768349568345002
tp3511
sS'19099'
p3512
(F-93.053765721668995
F41.686037661906397
tp3513
sS'51199'
p3514
(F-76.563532469992595
F37.243116654860401
tp3515
sS'13017'
p3516
(F-83.220506436300397
F31.759790958983402
tp3517
sS'51195'
p3518
(F-82.621336803711799
F36.974459856369997
tp3519
sS'51197'
p3520
(F-81.078663562891094
F36.917120300249998
tp3521
sS'16049'
p3522
(F-115.46747492845201
F45.844045068735298
tp3523
sS'51191'
p3524
(F-81.959700932143605
F36.724457580162102
tp3525
sS'51193'
p3526
(F-76.804223745781897
F38.111955049876201
tp3527
sS'22081'
p3528
(F-93.339865424074205
F32.0931329549297
tp3529
sS'22083'
p3530
(F-91.763477571041406
F32.4178025704486
tp3531
sS'51750'
p3532
(F-80.558286242659605
F37.122902797940903
tp3533
sS'22085'
p3534
(F-93.554598121975403
F31.564000563866099
tp3535
sS'22087'
p3536
(F-89.593811736855002
F29.854514028361098
tp3537
sS'19095'
p3538
(F-92.065505664466599
F41.686322566023399
tp3539
sS'22089'
p3540
(F-90.358194525738497
F29.905477940254102
tp3541
sS'40017'
p3542
(F-97.9823695274344
F35.542442084063701
tp3543
sS'19097'
p3544
(F-90.574244994850403
F42.171738441774998
tp3545
sS'40015'
p3546
(F-98.375141066891999
F35.174381551599602
tp3547
sS'19091'
p3548
(F-94.207170179882397
F42.776463547662701
tp3549
sS'21059'
p3550
(F-87.087229259219797
F37.731848089360803
tp3551
sS'26161'
p3552
(F-83.838767359410895
F42.253220714433098
tp3553
sS'21053'
p3554
(F-85.136173829792398
F36.727441652806199
tp3555
sS'21051'
p3556
(F-83.7146611598546
F37.1597085737681
tp3557
sS'19093'
p3558
(F-95.513506037914993
F42.386894222746697
tp3559
sS'21057'
p3560
(F-85.388512179177795
F36.7865978197107
tp3561
sS'21055'
p3562
(F-88.097196160882802
F37.352723564472001
tp3563
sS'21237'
p3564
(F-83.493159333615495
F37.739318446669003
tp3565
sS'21235'
p3566
(F-84.145182048787305
F36.758090724577997
tp3567
sS'53049'
p3568
(F-123.70420107546801
F46.555718696659397
tp3569
sS'21231'
p3570
(F-84.828622932901695
F36.801278637473096
tp3571
sS'53045'
p3572
(F-123.19277999517401
F47.348396124198104
tp3573
sS'53047'
p3574
(F-119.74073749915
F48.548827190379498
tp3575
sS'47111'
p3576
(F-86.007270778902594
F36.531995791478401
tp3577
sS'53041'
p3578
(F-122.39250914653699
F46.577684600719898
tp3579
sS'21239'
p3580
(F-84.743583190119907
F38.042380029875602
tp3581
sS'17129'
p3582
(F-89.8021891560781
F40.027391200111403
tp3583
sS'13321'
p3584
(F-83.850884984581199
F31.5515096084895
tp3585
sS'17123'
p3586
(F-89.344754925935106
F41.0331644742039
tp3587
sS'17121'
p3588
(F-88.918979941183494
F38.649593332094597
tp3589
sS'17127'
p3590
(F-88.707721938349906
F37.2189698432448
tp3591
sS'17125'
p3592
(F-89.916774276431596
F40.239653486290997
tp3593
sS'26135'
p3594
(F-84.129753443927697
F44.681742586101102
tp3595
sS'26137'
p3596
(F-84.598976602270696
F45.021370538873803
tp3597
sS'26131'
p3598
(F-89.314999441927995
F46.6643425552815
tp3599
sS'26133'
p3600
(F-85.325262835411294
F43.989847311634399
tp3601
sS'26139'
p3602
(F-85.9961005371824
F42.959848161453202
tp3603
sS'05149'
p3604
(F-93.411237895947494
F35.002602960978002
tp3605
sS'17113'
p3606
(F-88.847338547457994
F40.490876060983702
tp3607
sS'20125'
p3608
(F-95.742878678127099
F37.192522345448999
tp3609
sS'20127'
p3610
(F-96.649888127307904
F38.6874213809484
tp3611
sS'20121'
p3612
(F-94.838095843074996
F38.5635323611709
tp3613
sS'20123'
p3614
(F-98.209373408873702
F39.393271300341297
tp3615
sS'20129'
p3616
(F-101.799249058331
F37.191388449110399
tp3617
sS'17057'
p3618
(F-90.2074701573288
F40.472755937639398
tp3619
sS'17055'
p3620
(F-88.924144747958394
F37.992281286114199
tp3621
sS'17053'
p3622
(F-88.223267655904294
F40.597191542700401
tp3623
sS'26035'
p3624
(F-84.847813598059403
F43.987878239828802
tp3625
sS'48383'
p3626
(F-101.52309814676499
F31.3662124037075
tp3627
sS'48381'
p3628
(F-101.89705031884399
F34.965872195736601
tp3629
sS'48187'
p3630
(F-97.948581648787197
F29.583058546355002
tp3631
sS'48387'
p3632
(F-95.050273998532703
F33.620750841780698
tp3633
sS'17059'
p3634
(F-88.230544041970006
F37.762703265292501
tp3635
sS'13211'
p3636
(F-83.492271891335605
F33.590920246309402
tp3637
sS'13213'
p3638
(F-84.748071542455605
F34.788432257645098
tp3639
sS'13215'
p3640
(F-84.877056390407105
F32.510028466258802
tp3641
sS'13217'
p3642
(F-83.8501891987287
F33.555036678620802
tp3643
sS'13219'
p3644
(F-83.437101839588394
F33.834963847978898
tp3645
sS'38069'
p3646
(F-99.971834599573199
F48.249593450107703
tp3647
sS'26031'
p3648
(F-84.499898188361797
F45.446528373102602
tp3649
sS'48259'
p3650
(F-98.711539776421304
F29.944654102942
tp3651
sS'48251'
p3652
(F-97.366347458208907
F32.3790131128696
tp3653
sS'26033'
p3654
(F-84.664187907361395
F46.3340040872746
tp3655
sS'48255'
p3656
(F-97.859381916852797
F28.9057294882566
tp3657
sS'48257'
p3658
(F-96.2877744705835
F32.599303946339198
tp3659
sS'45007'
p3660
(F-82.637889373923301
F34.519098009131497
tp3661
sS'41071'
p3662
(F-123.308119996145
F45.232589924059099
tp3663
sS'45005'
p3664
(F-81.358300378722802
F32.988152869380897
tp3665
sS'48035'
p3666
(F-97.634324888234204
F31.9003830044648
tp3667
sS'48037'
p3668
(F-94.423364894235803
F33.445783355754102
tp3669
sS'48039'
p3670
(F-95.451924040132496
F29.189657864150199
tp3671
sS'45009'
p3672
(F-81.054242159584106
F33.214798278257099
tp3673
sS'20011'
p3674
(F-94.849328753981496
F37.855203278949404
tp3675
sS'20013'
p3676
(F-95.564209037054795
F39.826486013369703
tp3677
sS'20015'
p3678
(F-96.839041982514402
F37.781237977233097
tp3679
sS'20017'
p3680
(F-96.593953411575995
F38.302040229300097
tp3681
sS'20019'
p3682
(F-96.245382773137706
F37.150025458144803
tp3683
sS'41063'
p3684
(F-117.181130310814
F45.579879919553697
tp3685
sS'28117'
p3686
(F-88.520065150954395
F34.618284660173103
tp3687
sS'48225'
p3688
(F-95.422680623853196
F31.317732878289199
tp3689
sS'37069'
p3690
(F-78.285607761093303
F36.082777072482898
tp3691
sS'13109'
p3692
(F-81.886879745970802
F32.156759357880901
tp3693
sS'37065'
p3694
(F-77.597066093582995
F35.912953371611799
tp3695
sS'40101'
p3696
(F-95.379579085594003
F35.616147399924301
tp3697
sS'37067'
p3698
(F-80.256364546385399
F36.1304981852022
tp3699
sS'13107'
p3700
(F-82.301713251021994
F32.589743835371699
tp3701
sS'37061'
p3702
(F-77.932928571693395
F34.936264631884299
tp3703
sS'48227'
p3704
(F-101.435583439268
F32.306155832178199
tp3705
sS'37063'
p3706
(F-78.876333900617695
F36.0360307435934
tp3707
sS'13103'
p3708
(F-81.341353794241002
F32.367284978041504
tp3709
sS'13257'
p3710
(F-83.2934661127113
F34.553958724335203
tp3711
sS'48221'
p3712
(F-97.832299675296397
F32.4299463169353
tp3713
sS'04009'
p3714
(F-109.88739881464301
F32.932700192649399
tp3715
sS'38025'
p3716
(F-102.61828108631499
F47.3567644270084
tp3717
sS'29183'
p3718
(F-90.6748699405141
F38.7819327752959
tp3719
sS'38027'
p3720
(F-98.901625235750799
F47.717584339400503
tp3721
sS'29185'
p3722
(F-93.775969398312398
F38.037185282580602
tp3723
sS'38021'
p3724
(F-98.504671246678399
F46.110184373939198
tp3725
sS'29187'
p3726
(F-90.472219072204993
F37.810243848294903
tp3727
sS'38023'
p3728
(F-103.487249353574
F48.814913500168402
tp3729
sS'29189'
p3730
(F-90.443372211729894
F38.640537117135501
tp3731
sS'54063'
p3732
(F-80.550498616996194
F37.560384078535002
tp3733
sS'04003'
p3734
(F-109.75116760476899
F31.879607893023898
tp3735
sS'54061'
p3736
(F-80.046556506813999
F39.630321348645197
tp3737
sS'04005'
p3738
(F-111.77049719237699
F35.838744325368403
tp3739
sS'54067'
p3740
(F-80.799394631194104
F38.2917027974256
tp3741
sS'04007'
p3742
(F-110.811710352837
F33.7997472205031
tp3743
sS'54065'
p3744
(F-78.257801022596198
F39.560439380986899
tp3745
sS'39051'
p3746
(F-84.130081484592694
F41.601816244275199
tp3747
sS'28119'
p3748
(F-90.289097729098501
F34.251401841269598
tp3749
sS'29137'
p3750
(F-92.0007364933155
F39.4954545213646
tp3751
sS'36083'
p3752
(F-73.509718103239706
F42.711078530813602
tp3753
sS'40075'
p3754
(F-98.980851410869505
F34.916352824823697
tp3755
sS'08107'
p3756
(F-106.991252117907
F40.485139049382703
tp3757
sS'08101'
p3758
(F-104.512707595384
F38.173514050691999
tp3759
sS'08103'
p3760
(F-108.21705336282101
F39.979876214353702
tp3761
sS'39055'
p3762
(F-81.178662799385606
F41.499525244201003
tp3763
sS'40079'
p3764
(F-94.703419364030097
F34.900310193094199
tp3765
sS'30059'
p3766
(F-110.88562782596701
F46.598176867680301
tp3767
sS'34009'
p3768
(F-74.800298974626799
F39.148997870309699
tp3769
sS'30051'
p3770
(F-111.024583920179
F48.561665692751603
tp3771
sS'34003'
p3772
(F-74.074410726847901
F40.959736776087396
tp3773
sS'30053'
p3774
(F-115.40517906250101
F48.542442270133002
tp3775
sS'34001'
p3776
(F-74.660778115492207
F39.477731233803098
tp3777
sS'30055'
p3778
(F-105.79542064020001
F47.645216202333103
tp3779
sS'34007'
p3780
(F-74.9597539966272
F39.803521507642003
tp3781
sS'30057'
p3782
(F-111.92026757588501
F45.300677411490298
tp3783
sS'34005'
p3784
(F-74.6681812947038
F39.877651786496997
tp3785
sS'18013'
p3786
(F-86.227383966248794
F39.1962271548947
tp3787
sS'18011'
p3788
(F-86.468708897273501
F40.050798335972601
tp3789
sS'18017'
p3790
(F-86.345982760550598
F40.761535399880401
tp3791
sS'18015'
p3792
(F-86.563500142124198
F40.582842434172697
tp3793
sS'18019'
p3794
(F-85.707317144547801
F38.477311497587699
tp3795
sS'28055'
p3796
(F-90.989188954370604
F32.741401520438401
tp3797
sS'28057'
p3798
(F-88.3612971204535
F34.279987331354299
tp3799
sS'28051'
p3800
(F-90.092041691450703
F33.123545362468001
tp3801
sS'28053'
p3802
(F-90.526675536283904
F33.128715413433703
tp3803
sS'28059'
p3804
(F-88.635852353068003
F30.5451752335983
tp3805
sS'37115'
p3806
(F-82.705775177200195
F35.8580494112528
tp3807
sS'37117'
p3808
(F-77.107085460061697
F35.8415929994325
tp3809
sS'18087'
p3810
(F-85.426491365382603
F41.642621451350003
tp3811
sS'37111'
p3812
(F-82.048716684591
F35.681253361573297
tp3813
sS'37113'
p3814
(F-83.422111767363802
F35.150431003087299
tp3815
sS'29059'
p3816
(F-93.023654891125105
F37.680421719114797
tp3817
sS'48385'
p3818
(F-99.822195710494498
F29.831773742625799
tp3819
sS'37119'
p3820
(F-80.832775054560102
F35.246678564701497
tp3821
sS'29053'
p3822
(F-92.810108812645595
F38.843545205859101
tp3823
sS'13199'
p3824
(F-84.688310641642005
F33.040664168008398
tp3825
sS'27079'
p3826
(F-93.730085837438594
F44.371425968728502
tp3827
sS'27077'
p3828
(F-94.905023789185904
F48.770526740742802
tp3829
sS'31185'
p3830
(F-97.597117792516798
F40.872742031636498
tp3831
sS'27075'
p3832
(F-91.445724182889805
F47.640934375978802
tp3833
sS'27073'
p3834
(F-96.173514205817199
F44.995476148792001
tp3835
sS'37139'
p3836
(F-76.283991197122504
F36.295427633838301
tp3837
sS'27071'
p3838
(F-93.783360267749799
F48.2452995793819
tp3839
sS'31183'
p3840
(F-98.528180673093104
F41.914768248367402
tp3841
sS'31053'
p3842
(F-96.6540161812718
F41.577912221183901
tp3843
sS'31051'
p3844
(F-96.867752815483399
F42.493207830523303
tp3845
sS'31057'
p3846
(F-101.687947395986
F40.176200518683899
tp3847
sS'35029'
p3848
(F-107.749751577472
F32.182198516753402
tp3849
sS'31055'
p3850
(F-96.154300710786899
F41.295346564278198
tp3851
sS'35027'
p3852
(F-105.45921689095699
F33.745162867465602
tp3853
sS'35025'
p3854
(F-103.412443868609
F32.792168046626699
tp3855
sS'31059'
p3856
(F-97.5964998701767
F40.524656841996503
tp3857
sS'35023'
p3858
(F-108.71479199724
F31.914076917996098
tp3859
sS'35021'
p3860
(F-103.819989471079
F35.857853716652102
tp3861
sS'55083'
p3862
(F-88.269195927076794
F45.026140036979797
tp3863
sS'55081'
p3864
(F-90.617787877783002
F43.945750565972403
tp3865
sS'29051'
p3866
(F-92.281630927445306
F38.505411110331998
tp3867
sS'55087'
p3868
(F-88.464947660974005
F44.416092478870702
tp3869
sS'55085'
p3870
(F-89.521790960580802
F45.705548871522701
tp3871
sS'55089'
p3872
(F-87.950904115619295
F43.384029834235903
tp3873
sS'47149'
p3874
(F-86.416734247289995
F35.842716006619803
tp3875
sS'51690'
p3876
(F-79.863621365734403
F36.682652205246796
tp3877
sS'13195'
p3878
(F-83.209029921235398
F34.127790609478197
tp3879
sS'47141'
p3880
(F-85.495167394307302
F36.140819119897102
tp3881
sS'47143'
p3882
(F-84.924397251233799
F35.608723498371504
tp3883
sS'47145'
p3884
(F-84.523247598536997
F35.8477875489817
tp3885
sS'47147'
p3886
(F-86.870581731710701
F36.525478322931697
tp3887
sS'19073'
p3888
(F-94.396845597480507
F42.036236856635902
tp3889
sS'19071'
p3890
(F-95.604670598485299
F40.745567598275898
tp3891
sS'39089'
p3892
(F-82.483118935955403
F40.0916209210218
tp3893
sS'19077'
p3894
(F-94.501063209420195
F41.683746205802997
tp3895
sS'19075'
p3896
(F-92.7914294050385
F42.401865145032197
tp3897
sS'39085'
p3898
(F-81.237325221764905
F41.696561872215497
tp3899
sS'39087'
p3900
(F-82.536778660643606
F38.598418520142197
tp3901
sS'19079'
p3902
(F-93.706782400821893
F42.383759530674297
tp3903
sS'39081'
p3904
(F-80.761002717409696
F40.385012924082801
tp3905
sS'39083'
p3906
(F-82.421513969720294
F40.398759787136903
tp3907
sS'28129'
p3908
(F-89.506679191842593
F32.017685773916597
tp3909
sS'28125'
p3910
(F-90.813172013764699
F32.879868883903399
tp3911
sS'28127'
p3912
(F-89.919500007501
F31.9131592420371
tp3913
sS'28121'
p3914
(F-89.945792057215201
F32.2641302435242
tp3915
sS'28123'
p3916
(F-89.537633994491799
F32.4063879769853
tp3917
sS'23029'
p3918
(F-67.629201519283797
F45.035379186954302
tp3919
sS'16083'
p3920
(F-114.667131843628
F42.355961321613599
tp3921
sS'16081'
p3922
(F-111.207675020344
F43.759433910957803
tp3923
sS'16087'
p3924
(F-116.78473704671499
F44.452416554639697
tp3925
sS'16085'
p3926
(F-115.566160848004
F44.766689762189003
tp3927
sS'48253'
p3928
(F-99.878751094864597
F32.739893921909598
tp3929
sS'27149'
p3930
(F-96.000306275375294
F45.586123100467603
tp3931
sS'51187'
p3932
(F-78.207801220608999
F38.9089025763069
tp3933
sS'51185'
p3934
(F-81.560660086769303
F37.124944857886298
tp3935
sS'51183'
p3936
(F-77.261812133702904
F36.921776454301998
tp3937
sS'51181'
p3938
(F-76.900199918409001
F37.109837800882801
tp3939
sS'27095'
p3940
(F-93.630075056059596
F45.938041803400999
tp3941
sS'22093'
p3942
(F-90.796328801801096
F30.026300971062899
tp3943
sS'27097'
p3944
(F-94.268378595925796
F46.012625195633703
tp3945
sS'22091'
p3946
(F-90.710340579737505
F30.8219902916092
tp3947
sS'27091'
p3948
(F-94.551159467254394
F43.674311834488101
tp3949
sS'22097'
p3950
(F-92.005860912437996
F30.598847086033601
tp3951
sS'27093'
p3952
(F-94.527320608418805
F45.123107765557201
tp3953
sS'22095'
p3954
(F-90.470899451914605
F30.126462485600701
tp3955
sS'17039'
p3956
(F-88.904082241327998
F40.174611927165998
tp3957
sS'22099'
p3958
(F-91.726756493492204
F30.228178748718999
tp3959
sS'51740'
p3960
(F-76.353959136464695
F36.846753326819403
tp3961
sS'21045'
p3962
(F-84.928332941004697
F37.322302857524299
tp3963
sS'46109'
p3964
(F-96.946097964097106
F45.629568208459702
tp3965
sS'21041'
p3966
(F-85.123546887460094
F38.667849755659901
tp3967
sS'21043'
p3968
(F-83.049536831775498
F38.318186003413402
tp3969
sS'17203'
p3970
(F-89.211141790432904
F40.788232144547798
tp3971
sS'17201'
p3972
(F-89.160843530326602
F42.336256307095503
tp3973
sS'21049'
p3974
(F-84.147419350642195
F37.9708211164589
tp3975
sS'48033'
p3976
(F-101.431717441808
F32.743639877670198
tp3977
sS'45003'
p3978
(F-81.634753294183696
F33.544324220973699
tp3979
sS'45001'
p3980
(F-82.458749413327993
F34.222549962857002
tp3981
sS'51678'
p3982
(F-79.444035575047096
F37.782475404868201
tp3983
sS'17117'
p3984
(F-89.924430562820206
F39.261006658022097
tp3985
sS'21221'
p3986
(F-87.873352782706903
F36.806358675810202
tp3987
sS'17115'
p3988
(F-88.961606463788897
F39.859981614375002
tp3989
sS'21223'
p3990
(F-85.337486272089706
F38.613029247814502
tp3991
sS'05059'
p3992
(F-92.945954130379405
F34.317629727556003
tp3993
sS'21225'
p3994
(F-87.945342496456803
F37.658459189469802
tp3995
sS'17111'
p3996
(F-88.452358936954198
F42.324451433623899
tp3997
sS'21227'
p3998
(F-86.423806963800303
F36.993573428206602
tp3999
sS'05055'
p4000
(F-90.558961785794594
F36.117570829909297
tp4001
sS'53057'
p4002
(F-121.718629344711
F48.478414817501701
tp4003
sS'05057'
p4004
(F-93.668479460769802
F33.735322349908898
tp4005
sS'53055'
p4006
(F-123.088255915989
F48.541811345294001
tp4007
sS'05051'
p4008
(F-93.150411911541099
F34.576667251333497
tp4009
sS'53053'
p4010
(F-122.05501956740299
F47.0009412801666
tp4011
sS'05053'
p4012
(F-92.423608571017198
F34.289995921308297
tp4013
sS'53051'
p4014
(F-117.27395269343501
F48.532262105012897
tp4015
sS'36099'
p4016
(F-76.823784254428006
F42.781054486579599
tp4017
sS'36097'
p4018
(F-76.875171625864795
F42.393803910523602
tp4019
sS'36095'
p4020
(F-74.4421137473785
F42.588215325292303
tp4021
sS'36093'
p4022
(F-74.058571518377605
F42.8181273075988
tp4023
sS'36091'
p4024
(F-73.863897743111394
F43.107379874701401
tp4025
sS'51670'
p4026
(F-77.298529808308402
F37.2913712321498
tp4027
sS'37011'
p4028
(F-81.922468971937505
F36.076607050165101
tp4029
sS'42087'
p4030
(F-77.617033833670007
F40.610423408252998
tp4031
sS'26127'
p4032
(F-86.267578160644106
F43.640931806910302
tp4033
sS'42085'
p4034
(F-80.257680276408706
F41.302181235578097
tp4035
sS'26125'
p4036
(F-83.385791178155102
F42.6604024337678
tp4037
sS'42083'
p4038
(F-78.569055351934395
F41.8076939866326
tp4039
sS'26123'
p4040
(F-85.800898450996598
F43.5541937493538
tp4041
sS'42081'
p4042
(F-77.064533244712194
F41.343401343324601
tp4043
sS'26121'
p4044
(F-86.152046856311799
F43.291244443990799
tp4045
sS'42089'
p4046
(F-75.339462265520694
F41.058054888989702
tp4047
sS'26129'
p4048
(F-84.126448127429299
F44.334964277322598
tp4049
sS'20151'
p4050
(F-98.739623328349296
F37.647733993017297
tp4051
sS'10005'
p4052
(F-75.390037988850096
F38.6605522777921
tp4053
sS'16047'
p4054
(F-114.811558820451
F42.9709168834829
tp4055
sS'20155'
p4056
(F-98.085983725096298
F37.952953566334998
tp4057
sS'10001'
p4058
(F-75.568420431933802
F39.0861650125753
tp4059
sS'20157'
p4060
(F-97.650618096333901
F39.827768907928501
tp4061
sS'10003'
p4062
(F-75.6482436512578
F39.5813401114534
tp4063
sS'20159'
p4064
(F-98.200985760416003
F38.3471725549947
tp4065
sS'17063'
p4066
(F-88.418485695586199
F41.285105049500203
tp4067
sS'48423'
p4068
(F-95.269175789977893
F32.375038781539303
tp4069
sS'17061'
p4070
(F-90.390463250224997
F39.356214240097998
tp4071
sS'17067'
p4072
(F-91.164734202970493
F40.403743123926901
tp4073
sS'17065'
p4074
(F-88.539114586872302
F38.081571355268203
tp4075
sS'17069'
p4076
(F-88.2668788411397
F37.518210340045798
tp4077
sS'48133'
p4078
(F-98.832306817243094
F32.327085930143497
tp4079
sS'21171'
p4080
(F-85.716480125261498
F36.7121546836511
tp4081
sS'28087'
p4082
(F-88.443316440697998
F33.472942500023301
tp4083
sS'31079'
p4084
(F-98.502166636068495
F40.872577834750999
tp4085
sS'48427'
p4086
(F-98.738683899753894
F26.562096939253401
tp4087
sS'29147'
p4088
(F-94.883447450434602
F40.360746201343098
tp4089
sS'48137'
p4090
(F-100.304762740377
F29.982715610605901
tp4091
sS'29141'
p4092
(F-92.885992610163001
F38.423716617628003
tp4093
sS'49057'
p4094
(F-111.91338925797901
F41.269825365243904
tp4095
sS'34025'
p4096
(F-74.221126081484101
F40.260421250814503
tp4097
sS'45033'
p4098
(F-79.378919149759597
F34.391492102742497
tp4099
sS'45031'
p4100
(F-79.957691760133898
F34.332364241755698
tp4101
sS'45037'
p4102
(F-81.966569101118694
F33.772281406634598
tp4103
sS'41069'
p4104
(F-120.02737833090301
F44.726025979559402
tp4105
sS'45035'
p4106
(F-80.405556375277996
F33.0794917212177
tp4107
sS'41065'
p4108
(F-121.168252736117
F45.160084025370402
tp4109
sS'45039'
p4110
(F-81.121231166256507
F34.395104441710998
tp4111
sS'41067'
p4112
(F-123.09840443439801
F45.560051147804103
tp4113
sS'41061'
p4114
(F-118.00901695290401
F45.310359312236102
tp4115
sS'56021'
p4116
(F-104.68951806674301
F41.307009250755897
tp4117
sS'48283'
p4118
(F-99.099585887220002
F28.3451435693859
tp4119
sS'48281'
p4120
(F-98.241462472223006
F31.196215420027499
tp4121
sS'48287'
p4122
(F-96.965692244408203
F30.310654414519501
tp4123
sS'48285'
p4124
(F-96.930125703911003
F29.384340752931099
tp4125
sS'31071'
p4126
(F-98.991402715546897
F41.914356213479202
tp4127
sS'48289'
p4128
(F-95.995693811718098
F31.296504289946899
tp4129
sS'31073'
p4130
(F-99.830691475343599
F40.514815593176102
tp4131
sS'36075'
p4132
(F-76.141360282043493
F43.426923858429497
tp4133
sS'36077'
p4134
(F-75.032595629423
F42.633753619763198
tp4135
sS'36071'
p4136
(F-74.305543922282197
F41.402136743099099
tp4137
sS'36073'
p4138
(F-78.231212041332
F43.2520774792334
tp4139
sS'37079'
p4140
(F-77.675846354177594
F35.485402587864399
tp4141
sS'13171'
p4142
(F-84.139471224863797
F33.076535515772498
tp4143
sS'37077'
p4144
(F-78.653029538261094
F36.304011834961997
tp4145
sS'13173'
p4146
(F-83.062746127146497
F31.037860434134299
tp4147
sS'37075'
p4148
(F-83.833479535068705
F35.3501516805335
tp4149
sS'36079'
p4150
(F-73.749480409266496
F41.426662817567198
tp4151
sS'37073'
p4152
(F-76.700484475246697
F36.444899765365399
tp4153
sS'13177'
p4154
(F-84.140998863645294
F31.7796092502929
tp4155
sS'37071'
p4156
(F-81.180253925549806
F35.294384832467102
tp4157
sS'54057'
p4158
(F-78.943825040205994
F39.414658855017002
tp4159
sS'54055'
p4160
(F-81.111441767836396
F37.405515797283797
tp4161
sS'08009'
p4162
(F-102.56047932370799
F37.319190260198297
tp4163
sS'54051'
p4164
(F-80.663403345605104
F39.860594786024798
tp4165
sS'08005'
p4166
(F-104.33834050801001
F39.649703600733403
tp4167
sS'08007'
p4168
(F-107.048285695837
F37.193536133711802
tp4169
sS'32021'
p4170
(F-118.43508211157599
F38.538758426175001
tp4171
sS'08001'
p4172
(F-104.33776611882
F39.8736318151539
tp4173
sS'08003'
p4174
(F-105.788322195169
F37.572923619597297
tp4175
sS'38051'
p4176
(F-99.441209106579905
F46.111855202627403
tp4177
sS'38053'
p4178
(F-103.39528997833099
F47.740187557084397
tp4179
sS'04019'
p4180
(F-111.789914485244
F32.097417759583202
tp4181
sS'38055'
p4182
(F-101.321857217583
F47.606963520233201
tp4183
sS'29197'
p4184
(F-92.520969900750998
F40.470259473119
tp4185
sS'38057'
p4186
(F-101.831525175526
F47.309219234163798
tp4187
sS'29195'
p4188
(F-93.201842297084895
F39.136848663814
tp4189
sS'38059'
p4190
(F-101.281179234655
F46.716052079681802
tp4191
sS'04013'
p4192
(F-112.491280331666
F33.348809393585803
tp4193
sS'29199'
p4194
(F-92.147062769738497
F40.452593780866799
tp4195
sS'04017'
p4196
(F-110.32140163993201
F35.399658227295603
tp4197
sS'04015'
p4198
(F-113.757954042283
F35.704098957138001
tp4199
sS'40109'
p4200
(F-97.407212664282497
F35.551521279087503
tp4201
sS'42117'
p4202
(F-77.254265041368598
F41.772171606999301
tp4203
sS'40001'
p4204
(F-94.658659725990205
F35.8839105272002
tp4205
sS'40003'
p4206
(F-98.324008382557096
F36.731038164140998
tp4207
sS'13001'
p4208
(F-82.2888905726291
F31.749224257581499
tp4209
sS'13003'
p4210
(F-82.880069756818898
F31.297160775549401
tp4211
sS'19183'
p4212
(F-91.717859137680307
F41.335599130899602
tp4213
sS'40009'
p4214
(F-99.681904585687903
F35.268729520768296
tp4215
sS'13009'
p4216
(F-83.249555441356705
F33.069266153593198
tp4217
sS'30049'
p4218
(F-112.390453579539
F47.122446929113401
tp4219
sS'30043'
p4220
(F-112.093809142297
F46.148448503131
tp4221
sS'30041'
p4222
(F-110.11119674785
F48.628223480174
tp4223
sS'40069'
p4224
(F-96.660675648087405
F34.316474209520997
tp4225
sS'30047'
p4226
(F-114.08936573024
F47.645909311124399
tp4227
sS'30045'
p4228
(F-110.266030755005
F47.045434949067499
tp4229
sS'18009'
p4230
(F-85.324822480071603
F40.4736368222935
tp4231
sS'13105'
p4232
(F-82.840142120247094
F34.116791657675101
tp4233
sS'18005'
p4234
(F-85.897592056477905
F39.205955814387899
tp4235
sS'18007'
p4236
(F-87.3109376187072
F40.606255316854501
tp4237
sS'18001'
p4238
(F-84.936615861930804
F40.745655051248299
tp4239
sS'18003'
p4240
(F-85.066574041414199
F41.090884530996597
tp4241
sS'28021'
p4242
(F-90.911773253024407
F31.973665339612101
tp4243
sS'28023'
p4244
(F-88.689429295475506
F32.0413803631481
tp4245
sS'40103'
p4246
(F-97.230506920053401
F36.388586598441599
tp4247
sS'20201'
p4248
(F-97.087535420600304
F39.784179736379997
tp4249
sS'20203'
p4250
(F-101.347378145384
F38.482072678940597
tp4251
sS'28029'
p4252
(F-90.448772485778903
F31.869260207454101
tp4253
sS'13269'
p4254
(F-84.251855883515603
F32.555903479744103
tp4255
sS'20209'
p4256
(F-94.764552770927097
F39.114613908936803
tp4257
sS'13101'
p4258
(F-82.893961440120407
F30.710050404607699
tp4259
sS'37107'
p4260
(F-77.6412805754223
F35.239152486907102
tp4261
sS'37105'
p4262
(F-79.171427980101598
F35.475152830184101
tp4263
sS'29049'
p4264
(F-94.4045843669752
F39.601777634358903
tp4265
sS'37101'
p4266
(F-78.365634316420795
F35.517614370805198
tp4267
sS'13125'
p4268
(F-82.610699856530701
F33.229282121885198
tp4269
sS'29047'
p4270
(F-94.420886821666002
F39.310511823955402
tp4271
sS'29041'
p4272
(F-92.962646250194297
F39.515097633624599
tp4273
sS'29510'
p4274
(F-90.245114184660594
F38.635828598872401
tp4275
sS'29043'
p4276
(F-93.188858295283296
F36.969569354908202
tp4277
sS'27069'
p4278
(F-96.782866364854598
F48.776630445492302
tp4279
sS'27061'
p4280
(F-93.631974042621394
F47.509508924332202
tp4281
sS'27063'
p4282
(F-95.154019233122099
F43.674119220114498
tp4283
sS'27065'
p4284
(F-93.293375822487306
F45.945185192964402
tp4285
sS'27067'
p4286
(F-95.004717025670899
F45.152368998542897
tp4287
sS'47007'
p4288
(F-85.205168979548404
F35.596409114230703
tp4289
sS'34037'
p4290
(F-74.690754471215399
F41.139399958654401
tp4291
sS'35039'
p4292
(F-106.69310533039101
F36.509578970750503
tp4293
sS'34035'
p4294
(F-74.616335696594703
F40.563499732638597
tp4295
sS'34033'
p4296
(F-75.348972913222198
F39.587395741332699
tp4297
sS'13123'
p4298
(F-84.455618002393095
F34.691163383222602
tp4299
sS'31069'
p4300
(F-102.335513281781
F41.619412617039899
tp4301
sS'31067'
p4302
(F-96.689441608097198
F40.2618899346866
tp4303
sS'35031'
p4304
(F-108.261831539773
F35.580646559250901
tp4305
sS'31065'
p4306
(F-99.912309642017703
F40.176443649408
tp4307
sS'35033'
p4308
(F-104.944540770345
F36.009948956927701
tp4309
sS'31063'
p4310
(F-100.39414541501699
F40.530092233710398
tp4311
sS'35035'
p4312
(F-105.741596396256
F32.613119064503302
tp4313
sS'34039'
p4314
(F-74.3089350855237
F40.659897823185197
tp4315
sS'35037'
p4316
(F-103.549603519093
F35.104399545066599
tp4317
sS'51021'
p4318
(F-81.130287714961199
F37.133970499309797
tp4319
sS'55099'
p4320
(F-90.361394567610205
F45.680384800108399
tp4321
sS'06089'
p4322
(F-122.040502136773
F40.763711418874799
tp4323
sS'39141'
p4324
(F-83.057022759042994
F39.337593677090098
tp4325
sS'06087'
p4326
(F-122.001836223493
F37.056181447639197
tp4327
sS'55095'
p4328
(F-92.441343064973495
F45.461418359122597
tp4329
sS'06085'
p4330
(F-121.69541024029
F37.231952652218503
tp4331
sS'55097'
p4332
(F-89.501376583257397
F44.476040014814103
tp4333
sS'06083'
p4334
(F-120.022271478173
F34.724813204487702
tp4335
sS'19113'
p4336
(F-91.598958402219793
F42.078934295362501
tp4337
sS'06081'
p4338
(F-122.328894620247
F37.422922489163803
tp4339
sS'55093'
p4340
(F-92.422419862477696
F44.7196287974649
tp4341
sS'31085'
p4342
(F-101.061861136792
F40.524771317309799
tp4343
sS'31087'
p4344
(F-101.042256389624
F40.176337485556402
tp4345
sS'47159'
p4346
(F-85.956712109805594
F36.250501754469497
tp4347
sS'31081'
p4348
(F-98.022862846732806
F40.873023167164497
tp4349
sS'31083'
p4350
(F-99.404652037707294
F40.1764983596468
tp4351
sS'46037'
p4352
(F-97.607420806580606
F45.3671413700607
tp4353
sS'47153'
p4354
(F-85.410572101783004
F35.3711451160165
tp4355
sS'47151'
p4356
(F-84.503487315845007
F36.428500800889204
tp4357
sS'31089'
p4358
(F-98.783830298907006
F42.455711868793301
tp4359
sS'47157'
p4360
(F-89.895547845533201
F35.183984689719999
tp4361
sS'47155'
p4362
(F-83.524196035127204
F35.784620929265799
tp4363
sS'48045'
p4364
(F-101.20855262907099
F34.530274989916897
tp4365
sS'46035'
p4366
(F-98.145987371307299
F43.674721922149601
tp4367
sS'51027'
p4368
(F-82.036063918411401
F37.266624907623502
tp4369
sS'19049'
p4370
(F-94.039741674054795
F41.684892615282202
tp4371
sS'39099'
p4372
(F-80.776309860123803
F41.014645400245399
tp4373
sS'19047'
p4374
(F-95.381978006373302
F42.037199375443798
tp4375
sS'39097'
p4376
(F-83.400206789700604
F39.894020891810897
tp4377
sS'19045'
p4378
(F-90.531963384930407
F41.898034770735599
tp4379
sS'39095'
p4380
(F-83.656756013920599
F41.620499267842398
tp4381
sS'19043'
p4382
(F-91.341431422743696
F42.844721809204501
tp4383
sS'39093'
p4384
(F-82.151161383882993
F41.295601586354003
tp4385
sS'19041'
p4386
(F-95.150935571419396
F43.082571744977798
tp4387
sS'39091'
p4388
(F-83.765847913701705
F40.388460529009301
tp4389
sS'28159'
p4390
(F-89.034401922387303
F33.088493217347498
tp4391
sS'19119'
p4392
(F-96.210228245981995
F43.380532251043903
tp4393
sS'54069'
p4394
(F-80.618916706702507
F40.096948596009199
tp4395
sS'39149'
p4396
(F-84.204747888117197
F40.331553957364498
tp4397
sS'28151'
p4398
(F-90.947488138711194
F33.283781432968802
tp4399
sS'28153'
p4400
(F-88.695815254208497
F31.6407887352579
tp4401
sS'49027'
p4402
(F-113.100613676229
F39.073239181163899
tp4403
sS'28155'
p4404
(F-89.284802185989193
F33.613101359846397
tp4405
sS'28157'
p4406
(F-91.310926169388395
F31.161079789842699
tp4407
sS'29181'
p4408
(F-90.863825340012696
F36.652805388736702
tp4409
sS'29186'
p4410
(F-90.194503679313897
F37.894453858739404
tp4411
sS'17025'
p4412
(F-88.490160986853795
F38.754150500616099
tp4413
sS'27003'
p4414
(F-93.246477861388598
F45.273257227944399
tp4415
sS'04001'
p4416
(F-109.488822516361
F35.395526151308502
tp4417
sS'17023'
p4418
(F-87.787679524365899
F39.333599921121603
tp4419
sS'38073'
p4420
(F-97.657465419996399
F46.456161053712201
tp4421
sS'36059'
p4422
(F-73.586410213370598
F40.732805266776303
tp4423
sS'40085'
p4424
(F-97.244129098573893
F33.949890263142699
tp4425
sS'38029'
p4426
(F-100.23877430818099
F46.285046862048503
tp4427
sS'05125'
p4428
(F-92.676512713373199
F34.6465927070766
tp4429
sS'27085'
p4430
(F-94.272400663499297
F44.823556677796603
tp4431
sS'27083'
p4432
(F-95.839017295622597
F44.413541715062699
tp4433
sS'27081'
p4434
(F-96.267114576531895
F44.412606547507103
tp4435
sS'51730'
p4436
(F-77.391426251875501
F37.204178567984897
tp4437
sS'51735'
p4438
(F-76.356880944122096
F37.131784920106902
tp4439
sS'05127'
p4440
(F-94.063238943671706
F34.860774488884502
tp4441
sS'27089'
p4442
(F-96.368500829229504
F48.358112114514903
tp4443
sS'21031'
p4444
(F-86.681626771954797
F37.2072838419748
tp4445
sS'21033'
p4446
(F-87.867864232216306
F37.145407352247098
tp4447
sS'21035'
p4448
(F-88.272255442976501
F36.621012623461397
tp4449
sS'21037'
p4450
(F-84.379515969493596
F38.946513375516098
tp4451
sS'21039'
p4452
(F-88.9709811290288
F36.8531998979539
tp4453
sS'05121'
p4454
(F-91.027709158629506
F36.341461193024102
tp4455
sS'22045'
p4456
(F-91.6999823645519
F29.968595232520201
tp4457
sS'39111'
p4458
(F-81.082925220510703
F39.727356383185302
tp4459
sS'22047'
p4460
(F-91.349333779091907
F30.258486393536501
tp4461
sS'22041'
p4462
(F-91.673775025285906
F32.133213402622403
tp4463
sS'05123'
p4464
(F-90.747770592678705
F35.022010349205203
tp4465
sS'22043'
p4466
(F-92.559504120780801
F31.599697612161201
tp4467
sS'13005'
p4468
(F-82.4526985063724
F31.5536800874861
tp4469
sS'25027'
p4470
(F-71.907765534606199
F42.351426406694202
tp4471
sS'25025'
p4472
(F-71.072353434046207
F42.334043470660298
tp4473
sS'22049'
p4474
(F-92.557783892042394
F32.302055103963603
tp4475
sS'25023'
p4476
(F-70.811280106631202
F41.950791397397701
tp4477
sS'25021'
p4478
(F-71.222976748904898
F42.155789612105799
tp4479
sS'06065'
p4480
(F-115.993807166645
F33.743662846114603
tp4481
sS'06067'
p4482
(F-121.344239993442
F38.449314797299003
tp4483
sS'06061'
p4484
(F-120.717543218177
F39.063465617657997
tp4485
sS'06063'
p4486
(F-120.83854509974999
F40.0046356748134
tp4487
sS'06069'
p4488
(F-121.07498245863999
F36.6057113785265
tp4489
sS'26011'
p4490
(F-83.894553455841404
F44.064692977731703
tp4491
sS'42123'
p4492
(F-79.274129171599398
F41.814509297092897
tp4493
sS'51640'
p4494
(F-80.917615929913595
F36.666005508183403
tp4495
sS'56015'
p4496
(F-104.353315632795
F42.087897831671697
tp4497
sS'17101'
p4498
(F-87.726739198025896
F38.719978823604002
tp4499
sS'56017'
p4500
(F-108.442156173033
F43.718953093445002
tp4501
sS'17103'
p4502
(F-89.300379521726001
F41.746193461456002
tp4503
sS'56011'
p4504
(F-104.569946936455
F44.588487807907804
tp4505
sS'17105'
p4506
(F-88.557718321051496
F40.891568183384202
tp4507
sS'56013'
p4508
(F-108.630458787435
F43.040543406162598
tp4509
sS'17107'
p4510
(F-89.367542558248104
F40.124561131305498
tp4511
sS'53063'
p4512
(F-117.404038060337
F47.620624110627801
tp4513
sS'17109'
p4514
(F-90.677909997321194
F40.456195405740502
tp4515
sS'53061'
p4516
(F-121.697243826644
F48.047360633629197
tp4517
sS'05045'
p4518
(F-92.332038311102806
F35.1469925766676
tp4519
sS'53067'
p4520
(F-122.83278467802501
F46.925601507383902
tp4521
sS'05043'
p4522
(F-91.719997190030995
F33.589444816950902
tp4523
sS'53065'
p4524
(F-117.85512613661
F48.399104524697997
tp4525
sS'05041'
p4526
(F-91.253991735985196
F33.833269365638301
tp4527
sS'36089'
p4528
(F-75.0691009172821
F44.496384648689599
tp4529
sS'21149'
p4530
(F-87.263610893854107
F37.529192805003397
tp4531
sS'05083'
p4532
(F-93.716327338752393
F35.215270408441
tp4533
sS'21145'
p4534
(F-88.712653701438398
F37.053958226270197
tp4535
sS'36081'
p4536
(F-73.820271502117606
F40.702283940091199
tp4537
sS'21147'
p4538
(F-84.484221461445202
F36.737121465013402
tp4539
sS'19133'
p4540
(F-95.959873937201806
F42.051639700543298
tp4541
sS'21141'
p4542
(F-86.878919193996595
F36.859685230147498
tp4543
sS'36085'
p4544
(F-74.152380262439905
F40.580729072319102
tp4545
sS'21143'
p4546
(F-88.0831601987488
F37.0191006990364
tp4547
sS'36087'
p4548
(F-74.024066223778505
F41.152376413984598
tp4549
sS'17147'
p4550
(F-88.591100334619696
F40.010355667129602
tp4551
sS'08105'
p4552
(F-106.383238540966
F37.582528770666499
tp4553
sS'05087'
p4554
(F-93.724559130330505
F36.010957871073302
tp4555
sS'26113'
p4556
(F-85.094659572081099
F44.3373318530627
tp4557
sS'42091'
p4558
(F-75.367283564005902
F40.210823434028001
tp4559
sS'49013'
p4560
(F-110.42516779684701
F40.2982278414486
tp4561
sS'40077'
p4562
(F-95.250395104269401
F34.876087990860903
tp4563
sS'26117'
p4564
(F-85.152550936799699
F43.310971005944999
tp4565
sS'42095'
p4566
(F-75.307394258426001
F40.754221831412998
tp4567
sS'49017'
p4568
(F-111.443103157538
F37.854889557759599
tp4569
sS'42097'
p4570
(F-76.709343577655403
F40.852015328189601
tp4571
sS'49019'
p4572
(F-109.569862723528
F38.981950751532501
tp4573
sS'42099'
p4574
(F-77.262308206026503
F40.398396193444498
tp4575
sS'26119'
p4576
(F-84.127237913902107
F45.027608591839602
tp4577
sS'05085'
p4578
(F-91.888672551636205
F34.754265508433697
tp4579
sS'40071'
p4580
(F-97.143958052386296
F36.818000945218103
tp4581
sS'20143'
p4582
(F-97.650216673272197
F39.132536753710397
tp4583
sS'20141'
p4584
(F-98.767945099395803
F39.350334233902998
tp4585
sS'20147'
p4586
(F-99.347006792522393
F39.7845660732822
tp4587
sS'20145'
p4588
(F-99.236711882487697
F38.1813194450651
tp4589
sS'46135'
p4590
(F-97.394737051514795
F43.008978582452997
tp4591
sS'20149'
p4592
(F-96.342435470851399
F39.379016352071098
tp4593
sS'17079'
p4594
(F-88.153825989000396
F39.0100153482081
tp4595
sS'17075'
p4596
(F-87.824353035610002
F40.747241769972497
tp4597
sS'17077'
p4598
(F-89.382128017536701
F37.7851430763872
tp4599
sS'17071'
p4600
(F-90.925108236892498
F40.818024852575398
tp4601
sS'17073'
p4602
(F-90.131398871666704
F41.353134669057901
tp4603
sS'29145'
p4604
(F-94.339256414080694
F36.9055077382286
tp4605
sS'08109'
p4606
(F-106.28150942971
F38.080529319506503
tp4607
sS'48413'
p4608
(F-100.538316101354
F30.897421116363301
tp4609
sS'41019'
p4610
(F-123.166266251143
F43.279699313720798
tp4611
sS'45029'
p4612
(F-80.666892242719896
F32.863613943741598
tp4613
sS'41011'
p4614
(F-124.059475231275
F43.174055608739003
tp4615
sS'45025'
p4616
(F-80.158733506073304
F34.639798616721002
tp4617
sS'41013'
p4618
(F-120.35665396317199
F44.142279746736598
tp4619
sS'45027'
p4620
(F-80.216417953379207
F33.665793283140403
tp4621
sS'41015'
p4622
(F-124.156866550763
F42.457652879355301
tp4623
sS'45021'
p4624
(F-81.620354471709604
F35.048194119309102
tp4625
sS'41017'
p4626
(F-121.227794132892
F43.9148721099833
tp4627
sS'45023'
p4628
(F-81.159528910320603
F34.692044335817798
tp4629
sS'24047'
p4630
(F-75.333998015998105
F38.2127768038646
tp4631
sS'24045'
p4632
(F-75.620782191780904
F38.3732923307984
tp4633
sS'24043'
p4634
(F-77.813952758619294
F39.603605933843603
tp4635
sS'48299'
p4636
(F-98.684107766495302
F30.705751260043598
tp4637
sS'24041'
p4638
(F-76.094746137229507
F38.771436630889703
tp4639
sS'29219'
p4640
(F-91.160669636015399
F38.764605688420502
tp4641
sS'48295'
p4642
(F-100.273143088655
F36.277639300118103
tp4643
sS'48297'
p4644
(F-98.124828650763803
F28.351400990978
tp4645
sS'48291'
p4646
(F-94.812191736140903
F30.151588098737001
tp4647
sS'48293'
p4648
(F-96.580507126844296
F31.545456876753999
tp4649
sS'51045'
p4650
(F-80.212379288081905
F37.481214063311199
tp4651
sS'53013'
p4652
(F-117.90786408760999
F46.297551572650903
tp4653
sS'36067'
p4654
(F-76.194636809608099
F43.005812674136401
tp4655
sS'37049'
p4656
(F-77.094480306870295
F35.124364620364197
tp4657
sS'13169'
p4658
(F-83.560494679056205
F33.025125715670697
tp4659
sS'36063'
p4660
(F-78.745248015920396
F43.200061632541299
tp4661
sS'36061'
p4662
(F-73.966730208254702
F40.779216833150898
tp4663
sS'37043'
p4664
(F-83.750215941825005
F35.057203029109601
tp4665
sS'13163'
p4666
(F-82.418161906628896
F33.054875242000897
tp4667
sS'37041'
p4668
(F-76.607892983674901
F36.150770728148103
tp4669
sS'13161'
p4670
(F-82.636825709147601
F31.805611308679801
tp4671
sS'37047'
p4672
(F-78.655092275031507
F34.265437205901897
tp4673
sS'13167'
p4674
(F-82.660079507621901
F32.701460715222701
tp4675
sS'37045'
p4676
(F-81.555626935593395
F35.334105151143497
tp4677
sS'36069'
p4678
(F-77.2998220906792
F42.852848183965797
tp4679
sS'04027'
p4680
(F-113.905557622526
F32.769383716949598
tp4681
sS'54041'
p4682
(F-80.5021735582459
F38.9958659395868
tp4683
sS'04025'
p4684
(F-112.55390541814
F34.599901981324997
tp4685
sS'54043'
p4686
(F-82.070392198966303
F38.175349953779502
tp4687
sS'04023'
p4688
(F-110.84659406927901
F31.526025314001799
tp4689
sS'54045'
p4690
(F-81.935330628871299
F37.831533061031898
tp4691
sS'04021'
p4692
(F-111.34465410635499
F32.904366132276799
tp4693
sS'08019'
p4694
(F-105.644403226732
F39.6891793373049
tp4695
sS'54049'
p4696
(F-80.2433770424161
F39.509992954415701
tp4697
sS'08014'
p4698
(F-105.052741169494
F39.954624524192397
tp4699
sS'08015'
p4700
(F-106.194133199867
F38.747023223253898
tp4701
sS'08013'
p4702
(F-105.358120315376
F40.092657059451902
tp4703
sS'08011'
p4704
(F-103.071701444054
F37.955102078945202
tp4705
sS'38043'
p4706
(F-99.780094808796903
F46.980139793886302
tp4707
sS'38041'
p4708
(F-102.460353394873
F46.432526209269597
tp4709
sS'38047'
p4710
(F-99.477409413491102
F46.457367049802002
tp4711
sS'38045'
p4712
(F-98.535440298590601
F46.456905689508503
tp4713
sS'38049'
p4714
(F-100.636281932936
F48.234575281930098
tp4715
sS'26019'
p4716
(F-86.015550184037494
F44.638721599546898
tp4717
sS'40013'
p4718
(F-96.259792721900496
F33.962326166768399
tp4719
sS'13015'
p4720
(F-84.840492361606394
F34.237859797151003
tp4721
sS'13013'
p4722
(F-83.712731620518994
F33.993190485376701
tp4723
sS'30109'
p4724
(F-104.24896456636201
F46.965262730068901
tp4725
sS'13011'
p4726
(F-83.497361839320405
F34.354146990735202
tp4727
sS'30107'
p4728
(F-109.84449281357
F46.4663139303184
tp4729
sS'30105'
p4730
(F-106.66746726050501
F48.365264065387002
tp4731
sS'40019'
p4732
(F-97.285795068222399
F34.250848595969302
tp4733
sS'30103'
p4734
(F-107.271599635317
F46.211340930884603
tp4735
sS'30101'
p4736
(F-111.69564151878799
F48.655401695869699
tp4737
sS'13019'
p4738
(F-83.229637940261497
F31.275952954233698
tp4739
sS'13135'
p4740
(F-84.023614585031098
F33.961731193046901
tp4741
sS'18079'
p4742
(F-85.628051887902998
F38.9969209151241
tp4743
sS'18153'
p4744
(F-87.414780933085495
F39.088801865052098
tp4745
sS'18071'
p4746
(F-86.037530020620807
F38.906419141413402
tp4747
sS'18073'
p4748
(F-87.116121394309502
F41.022982609438699
tp4749
sS'18075'
p4750
(F-85.005704984222604
F40.437957274883701
tp4751
sS'18077'
p4752
(F-85.438536560960998
F38.785769782424502
tp4753
sS'28033'
p4754
(F-89.991847874565707
F34.875385947488098
tp4755
sS'28031'
p4756
(F-89.552626367575897
F31.6331874258718
tp4757
sS'28037'
p4758
(F-90.897910588479107
F31.477166742364201
tp4759
sS'28035'
p4760
(F-89.257874496392603
F31.1888776940303
tp4761
sS'51035'
p4762
(F-80.733869517958297
F36.731563110447702
tp4763
sS'28039'
p4764
(F-88.643995687334098
F30.862583606374901
tp4765
sS'37133'
p4766
(F-77.432973465148805
F34.731997652941502
tp4767
sS'37131'
p4768
(F-77.396760171783995
F36.4176720228742
tp4769
sS'37137'
p4770
(F-76.7408460311635
F35.143508645114999
tp4771
sS'37135'
p4772
(F-79.120586871116799
F36.061295926762703
tp4773
sS'29031'
p4774
(F-89.684467253203593
F37.384025310390797
tp4775
sS'29033'
p4776
(F-93.505172327151499
F39.426989815691201
tp4777
sS'29035'
p4778
(F-90.962342441995304
F36.9412356826005
tp4779
sS'29037'
p4780
(F-94.354893148417602
F38.647017998173197
tp4781
sS'47099'
p4782
(F-87.395593556426107
F35.217348153403499
tp4783
sS'47093'
p4784
(F-83.937092419889396
F35.993220742301901
tp4785
sS'47091'
p4786
(F-81.851761782934503
F36.454940395970503
tp4787
sS'47097'
p4788
(F-89.631449044860304
F35.760990049966502
tp4789
sS'47095'
p4790
(F-89.493535814703407
F36.335247131886398
tp4791
sS'18105'
p4792
(F-86.523127406486793
F39.160910397114499
tp4793
sS'19025'
p4794
(F-94.640401716238301
F42.385183728298202
tp4795
sS'18107'
p4796
(F-86.893307829702294
F40.040389426283703
tp4797
sS'18101'
p4798
(F-86.803076075740194
F38.708016121739
tp4799
sS'18103'
p4800
(F-86.045049119466
F40.769456944698497
tp4801
sS'27133'
p4802
(F-96.253199389305394
F43.674685981576999
tp4803
sS'18109'
p4804
(F-86.446230815620893
F39.481569623206497
tp4805
sS'19027'
p4806
(F-94.860565963984101
F42.036207935309797
tp4807
sS'51071'
p4808
(F-80.703740683459998
F37.314021409150499
tp4809
sS'27131'
p4810
(F-93.296671008361201
F44.354262876706599
tp4811
sS'29229'
p4812
(F-92.468713172694706
F37.270157057442702
tp4813
sS'19021'
p4814
(F-95.151134224670201
F42.735496330021199
tp4815
sS'39031'
p4816
(F-81.920017317785096
F40.301661773588698
tp4817
sS'30077'
p4818
(F-112.936110032988
F46.856351370698803
tp4819
sS'34021'
p4820
(F-74.701689639197397
F40.283393834090198
tp4821
sS'30075'
p4822
(F-105.630188552655
F45.395044047499297
tp4823
sS'34023'
p4824
(F-74.411774996028399
F40.439106995800103
tp4825
sS'30073'
p4826
(F-112.22636570643699
F48.2277702525965
tp4827
sS'19023'
p4828
(F-92.790181296290399
F42.7315694574893
tp4829
sS'29143'
p4830
(F-89.651745977850794
F36.594583107843498
tp4831
sS'34027'
p4832
(F-74.544423951458597
F40.862015854091297
tp4833
sS'34029'
p4834
(F-74.281289243815806
F39.885043881737502
tp4835
sS'27135'
p4836
(F-95.810837363148494
F48.775113467294098
tp4837
sS'29149'
p4838
(F-91.403309574902806
F36.6866935721795
tp4839
sS'31075'
p4840
(F-101.74054369811
F41.914970700982302
tp4841
sS'30079'
p4842
(F-105.377938679542
F46.860523078151502
tp4843
sS'31077'
p4844
(F-98.521217376079306
F41.567440954668697
tp4845
sS'47167'
p4846
(F-89.7390601770839
F35.500989337095199
tp4847
sS'06099'
p4848
(F-120.99769661184401
F37.559137957254698
tp4849
sS'47165'
p4850
(F-86.460377979498304
F36.469374842014197
tp4851
sS'19189'
p4852
(F-93.734123823683603
F43.377519130062097
tp4853
sS'47163'
p4854
(F-82.304186640481902
F36.512912247862999
tp4855
sS'13131'
p4856
(F-84.234442488476702
F30.8746640776431
tp4857
sS'47161'
p4858
(F-87.838446100312396
F36.501158583306598
tp4859
sS'06091'
p4860
(F-120.515995063147
F39.580324962707401
tp4861
sS'06093'
p4862
(F-122.540364552591
F41.5926396118996
tp4863
sS'06095'
p4864
(F-121.932852011657
F38.2699728751208
tp4865
sS'47169'
p4866
(F-86.156766683700098
F36.3920540422465
tp4867
sS'19185'
p4868
(F-93.327352657818906
F40.739503948473903
tp4869
sS'31097'
p4870
(F-96.265084532847098
F40.392632658335302
tp4871
sS'31095'
p4872
(F-97.142722752262102
F40.175732248289101
tp4873
sS'31093'
p4874
(F-98.517107509488895
F41.220049268832199
tp4875
sS'31091'
p4876
(F-101.135308788904
F41.9160508573272
tp4877
sS'31099'
p4878
(F-98.948013834755002
F40.506702958958797
tp4879
sS'19059'
p4880
(F-95.150880807857504
F43.377910958215203
tp4881
sS'19051'
p4882
(F-92.409702014732702
F40.747688523550401
tp4883
sS'19053'
p4884
(F-93.786288352988805
F40.737700070760198
tp4885
sS'19055'
p4886
(F-91.367347181834205
F42.4711986880612
tp4887
sS'19057'
p4888
(F-91.181466129334794
F40.923186748798003
tp4889
sS'28149'
p4890
(F-90.851992597651105
F32.357266403444797
tp4891
sS'28143'
p4892
(F-90.375529838029394
F34.651955415484103
tp4893
sS'28141'
p4894
(F-88.239291285396007
F34.740411548342998
tp4895
sS'28147'
p4896
(F-90.106132991950105
F31.1484212613632
tp4897
sS'28145'
p4898
(F-89.003862084382405
F34.490477369825598
tp4899
sS'29055'
p4900
(F-91.303940124917901
F37.976357038764803
tp4901
sS'48409'
p4902
(F-97.5187884452763
F28.009202647374
tp4903
sS'22123'
p4904
(F-91.456768256091394
F32.788501763830801
tp4905
sS'22121'
p4906
(F-91.312735066849996
F30.463423685956101
tp4907
sS'22127'
p4908
(F-92.636687794110003
F31.9442547926975
tp4909
sS'22125'
p4910
(F-91.412602498641903
F30.875819716687399
tp4911
sS'31143'
p4912
(F-97.568438794919203
F41.186899672226197
tp4913
sS'39135'
p4914
(F-84.6479798051693
F39.741526181697701
tp4915
sS'39137'
p4916
(F-84.131727344677699
F41.0221214529763
tp4917
sS'39131'
p4918
(F-83.066765537887207
F39.077319463360602
tp4919
sS'39133'
p4920
(F-81.197404919969799
F41.167675292146001
tp4921
sS'51720'
p4922
(F-82.6259720960457
F36.931716090469301
tp4923
sS'39139'
p4924
(F-82.536496166654103
F40.774656340412299
tp4925
sS'21023'
p4926
(F-84.090143416077296
F38.6887967435447
tp4927
sS'29209'
p4928
(F-93.455992345631799
F36.7469255616966
tp4929
sS'21021'
p4930
(F-84.866838970179501
F37.624336119228303
tp4931
sS'21027'
p4932
(F-86.429337878684393
F37.773389143397303
tp4933
sS'21025'
p4934
(F-83.324061190563896
F37.5216158207487
tp4935
sS'21029'
p4936
(F-85.695859856689907
F37.9700735616386
tp4937
sS'22057'
p4938
(F-90.425884989831403
F29.566893829717401
tp4939
sS'25019'
p4940
(F-70.062453080017704
F41.282293001732
tp4941
sS'22055'
p4942
(F-92.063861750706195
F30.2067487004981
tp4943
sS'22053'
p4944
(F-92.814121795105507
F30.267703080823502
tp4945
sS'22051'
p4946
(F-90.131250112015096
F29.8040069635382
tp4947
sS'25013'
p4948
(F-72.631622265470597
F42.135105366367902
tp4949
sS'25011'
p4950
(F-72.591844528761698
F42.583088258859199
tp4951
sS'25017'
p4952
(F-71.391822175744394
F42.485559683388402
tp4953
sS'25015'
p4954
(F-72.663774841877
F42.340129070811301
tp4955
sS'22059'
p4956
(F-92.1604078566738
F31.676701149317999
tp4957
sS'06077'
p4958
(F-121.271435217404
F37.934787346952803
tp4959
sS'06075'
p4960
(F-122.44070959083299
F37.7550802168277
tp4961
sS'06073'
p4962
(F-116.735293164841
F33.034137017940097
tp4963
sS'06071'
p4964
(F-116.178410992556
F34.841398484876898
tp4965
sS'06079'
p4966
(F-120.40451301034
F35.387080000018699
tp4967
sS'48271'
p4968
(F-100.41798543598399
F29.350084557865401
tp4969
sS'51650'
p4970
(F-76.363172717044904
F37.055401509637797
tp4971
sS'56007'
p4972
(F-106.930661692908
F41.694359679975001
tp4973
sS'05079'
p4974
(F-91.733329215145403
F33.957443521160798
tp4975
sS'56005'
p4976
(F-105.548203361406
F44.248272584481597
tp4977
sS'56003'
p4978
(F-107.99519957278601
F44.526794848514498
tp4979
sS'56001'
p4980
(F-105.72376962924901
F41.654523565272797
tp4981
sS'05073'
p4982
(F-93.607056029208806
F33.240944612180499
tp4983
sS'40105'
p4984
(F-95.617392455874494
F36.798478478253102
tp4985
sS'05071'
p4986
(F-93.459895068262099
F35.5700685434756
tp4987
sS'05077'
p4988
(F-90.782131047602505
F34.780650233750301
tp4989
sS'53031'
p4990
(F-123.595402007281
F47.748806062019597
tp4991
sS'05075'
p4992
(F-91.1070870910347
F36.041255654990898
tp4993
sS'56009'
p4994
(F-105.507155281839
F42.9723418600299
tp4995
sS'21159'
p4996
(F-82.513179931151896
F37.801601118020798
tp4997
sS'21157'
p4998
(F-88.329351543735001
F36.883415923557997
tp4999
sS'21155'
p5000
(F-85.269637633466402
F37.552535280768097
tp5001
sS'21153'
p5002
(F-83.064923510439002
F37.706470851419198
tp5003
sS'21151'
p5004
(F-84.278003490109498
F37.720181493943898
tp5005
sS'13231'
p5006
(F-84.389230243578595
F33.0922533887071
tp5007
sS'31147'
p5008
(F-95.717547781641002
F40.125043556008997
tp5009
sS'20107'
p5010
(F-94.842974328771106
F38.212260054020199
tp5011
sS'49003'
p5012
(F-113.082121729191
F41.520963225967499
tp5013
sS'49001'
p5014
(F-113.23546592735801
F38.356959301253902
tp5015
sS'42069'
p5016
(F-75.609207784093002
F41.436828982952797
tp5017
sS'49007'
p5018
(F-110.58874392352099
F39.6481124865035
tp5019
sS'49005'
p5020
(F-111.74358659508501
F41.722422335547698
tp5021
sS'42065'
p5022
(F-78.999434454762095
F41.128157610676098
tp5023
sS'26105'
p5024
(F-86.249970911167296
F43.995249609889797
tp5025
sS'42067'
p5026
(F-77.402180886707001
F40.5310522752943
tp5027
sS'49009'
p5028
(F-109.50771676512301
F40.887291537233402
tp5029
sS'42061'
p5030
(F-77.9812078967894
F40.416954393132301
tp5031
sS'26101'
p5032
(F-86.056784980753804
F44.333038658341998
tp5033
sS'42063'
p5034
(F-79.087547529426402
F40.6520688331481
tp5035
sS'26103'
p5036
(F-87.641525133469699
F46.4313273877112
tp5037
sS'48359'
p5038
(F-102.60276325006301
F35.405043277856002
tp5039
sS'40107'
p5040
(F-96.322824999778703
F35.4654577338762
tp5041
sS'20179'
p5042
(F-100.441828285821
F39.350336369329099
tp5043
sS'48355'
p5044
(F-97.646261797704597
F27.7237499011474
tp5045
sS'53033'
p5046
(F-121.793459682795
F47.491562438137002
tp5047
sS'20175'
p5048
(F-100.851340538108
F37.1933254043674
tp5049
sS'20173'
p5050
(F-97.460985236127499
F37.684768127116698
tp5051
sS'48353'
p5052
(F-100.405957732198
F32.303509358289702
tp5053
sS'17009'
p5054
(F-90.750350174777395
F39.9618231274588
tp5055
sS'17001'
p5056
(F-91.188531704518098
F39.987860684699498
tp5057
sS'41051'
p5058
(F-122.415132980566
F45.546864542852198
tp5059
sS'17003'
p5060
(F-89.3375613964987
F37.191517804434497
tp5061
sS'17005'
p5062
(F-89.435554059684904
F38.886832499990199
tp5063
sS'17007'
p5064
(F-88.823365528957495
F42.323078181907697
tp5065
sS'31181'
p5066
(F-98.499971263719601
F40.176440594850199
tp5067
sS'53075'
p5068
(F-117.52300830477699
F46.901161974958498
tp5069
sS'53077'
p5070
(F-120.738782014309
F46.456862751259301
tp5071
sS'53071'
p5072
(F-118.478482741745
F46.229762198747103
tp5073
sS'53073'
p5074
(F-121.712023404408
F48.826227392543899
tp5075
sS'45059'
p5076
(F-82.005945655948096
F34.483566220563397
tp5077
sS'40055'
p5078
(F-99.560817657870899
F34.9357214256761
tp5079
sS'45051'
p5080
(F-78.996560948380704
F33.921418171486103
tp5081
sS'41003'
p5082
(F-123.42932611830101
F44.491768363538597
tp5083
sS'45053'
p5084
(F-81.031510561115297
F32.436694179573102
tp5085
sS'40033'
p5086
(F-98.372213685184093
F34.290163612971199
tp5087
sS'45055'
p5088
(F-80.590232189480304
F34.338765331760499
tp5089
sS'41007'
p5090
(F-123.655089570893
F45.994574479249202
tp5091
sS'45057'
p5092
(F-80.705426725425298
F34.686694138154898
tp5093
sS'41005'
p5094
(F-122.220940752518
F45.188144164419697
tp5095
sS'29203'
p5096
(F-91.400486489959306
F37.157409216105997
tp5097
sS'29201'
p5098
(F-89.568519960066794
F37.053039969883997
tp5099
sS'29207'
p5100
(F-89.944304274999297
F36.855599473255502
tp5101
sS'29205'
p5102
(F-92.076604825731394
F39.797770006399801
tp5103
sS'40051'
p5104
(F-97.884114166811003
F35.016942259152799
tp5105
sS'13157'
p5106
(F-83.566361541164696
F34.133884683739197
tp5107
sS'37055'
p5108
(F-75.858882107508904
F35.780537507849502
tp5109
sS'13155'
p5110
(F-83.276353960754705
F31.602213778521101
tp5111
sS'37057'
p5112
(F-80.212688311136006
F35.7932921638469
tp5113
sS'01019'
p5114
(F-85.603792907454704
F34.1759187139102
tp5115
sS'37051'
p5116
(F-78.827455621879594
F35.0485880528989
tp5117
sS'13151'
p5118
(F-84.154201528096706
F33.452992754009301
tp5119
sS'37053'
p5120
(F-76.005797036124093
F36.403044626147398
tp5121
sS'01015'
p5122
(F-85.826038768318696
F33.7714294545519
tp5123
sS'01017'
p5124
(F-85.392029041255299
F32.914346656024001
tp5125
sS'13187'
p5126
(F-84.002663994972494
F34.5721941367228
tp5127
sS'37059'
p5128
(F-80.544480988378794
F35.9291496338626
tp5129
sS'01013'
p5130
(F-86.680275622427402
F31.752429155671901
tp5131
sS'36053'
p5132
(F-75.669648961508102
F42.912765531516797
tp5133
sS'33009'
p5134
(F-71.820621441661302
F43.9407847119991
tp5135
sS'36057'
p5136
(F-74.439715700079404
F42.902291807254898
tp5137
sS'42113'
p5138
(F-76.512235024504506
F41.446158441189603
tp5139
sS'33003'
p5140
(F-71.202810119309007
F43.873882244759699
tp5141
sS'17089'
p5142
(F-88.428640594544206
F41.938882733844501
tp5143
sS'33001'
p5144
(F-71.4232925702822
F43.518689752955197
tp5145
sS'33007'
p5146
(F-71.305579025194007
F44.689610935374702
tp5147
sS'33005'
p5148
(F-72.251166935293497
F42.919309387854803
tp5149
sS'09007'
p5150
(F-72.535144264693699
F41.463186207575703
tp5151
sS'08029'
p5152
(F-107.86288917281099
F38.861359130917698
tp5153
sS'09005'
p5154
(F-73.245321603953698
F41.792477878866798
tp5155
sS'09003'
p5156
(F-72.7328588045564
F41.806403726516599
tp5157
sS'09001'
p5158
(F-73.389176600972704
F41.271092973619901
tp5159
sS'08023'
p5160
(F-105.42822102887
F37.278096992247796
tp5161
sS'08021'
p5162
(F-106.191609541731
F37.200718156291103
tp5163
sS'08027'
p5164
(F-105.367528053393
F38.108691226412802
tp5165
sS'08025'
p5166
(F-103.78447087644101
F38.326584854627498
tp5167
sS'09009'
p5168
(F-72.932163224633896
F41.410444618233001
tp5169
sS'48175'
p5170
(F-97.426445936412506
F28.657086867545999
tp5171
sS'48177'
p5172
(F-97.492547726104505
F29.456680139003598
tp5173
sS'48171'
p5174
(F-98.9465683797726
F30.318055261400801
tp5175
sS'48173'
p5176
(F-101.520785801991
F31.869466708251998
tp5177
sS'38077'
p5178
(F-96.948294613065698
F46.264606215272003
tp5179
sS'38075'
p5180
(F-101.657820227786
F48.719054003687397
tp5181
sS'48179'
p5182
(F-100.812594915844
F35.4012077230092
tp5183
sS'48159'
p5184
(F-95.218434622241006
F33.175524799792399
tp5185
sS'38071'
p5186
(F-98.720121298334803
F48.268938400699703
tp5187
sS'20195'
p5188
(F-99.872822392320799
F38.914306254162803
tp5189
sS'20197'
p5190
(F-96.204973310966295
F38.953263218700101
tp5191
sS'20191'
p5192
(F-97.476548278350606
F37.237312169700502
tp5193
sS'20193'
p5194
(F-101.055558951314
F39.350918100792001
tp5195
sS'40025'
p5196
(F-102.51774503538699
F36.748262463116397
tp5197
sS'29093'
p5198
(F-90.773436452771193
F37.555146776778997
tp5199
sS'20199'
p5200
(F-101.763615461689
F38.916680091958803
tp5201
sS'13023'
p5202
(F-83.327852442479795
F32.434428252314802
tp5203
sS'13021'
p5204
(F-83.6974083647481
F32.806498705761598
tp5205
sS'13027'
p5206
(F-83.580481360371607
F30.842217109107299
tp5207
sS'13025'
p5208
(F-81.981907980131695
F31.196876420433401
tp5209
sS'40027'
p5210
(F-97.326418794282603
F35.203043637339697
tp5211
sS'30111'
p5212
(F-108.27441141371
F45.937347122225198
tp5213
sS'13029'
p5214
(F-81.443636883854893
F32.014471076734502
tp5215
sS'39005'
p5216
(F-82.270686114649493
F40.846012627623203
tp5217
sS'40023'
p5218
(F-95.552157770226799
F34.026598500780104
tp5219
sS'40021'
p5220
(F-94.9996665868685
F35.906591344568703
tp5221
sS'35028'
p5222
(F-106.307241981733
F35.869364673361602
tp5223
sS'18069'
p5224
(F-85.488130534373596
F40.8292196248035
tp5225
sS'51590'
p5226
(F-79.408758492766296
F36.5830683946471
tp5227
sS'18061'
p5228
(F-86.111477061304896
F38.195259102652898
tp5229
sS'18067'
p5230
(F-86.1169593860795
F40.483607532273197
tp5231
sS'18065'
p5232
(F-85.396425199593907
F39.931063198304699
tp5233
sS'28009'
p5234
(F-89.188464064923807
F34.8172935014708
tp5235
sS'28007'
p5236
(F-89.581520681641805
F33.086262838441698
tp5237
sS'28005'
p5238
(F-90.804418401690896
F31.174426009138401
tp5239
sS'28003'
p5240
(F-88.580262756818698
F34.880809697972801
tp5241
sS'28001'
p5242
(F-91.353547737566899
F31.482888412909801
tp5243
sS'29029'
p5244
(F-92.766047023412597
F38.027032104098602
tp5245
sS'37129'
p5246
(F-77.884748363378307
F34.232673408759801
tp5247
sS'29023'
p5248
(F-90.406577686059705
F36.716419953721498
tp5249
sS'29021'
p5250
(F-94.806119376453196
F39.659905330301498
tp5251
sS'29027'
p5252
(F-91.926022995644999
F38.8355202521184
tp5253
sS'37123'
p5254
(F-79.905468479158998
F35.3324624684019
tp5255
sS'18117'
p5256
(F-86.495061323806397
F38.541790572219
tp5257
sS'18115'
p5258
(F-84.965094745957202
F38.950038398903303
tp5259
sS'18113'
p5260
(F-85.4175035294396
F41.398604035537602
tp5261
sS'18111'
p5262
(F-87.397589085148795
F40.955843355019198
tp5263
sS'18119'
p5264
(F-86.837639872733305
F39.312822440628203
tp5265
sS'48081'
p5266
(F-100.529922648808
F31.888632378070799
tp5267
sS'40123'
p5268
(F-96.684449312190097
F34.728001359037499
tp5269
sS'24510'
p5270
(F-76.614442788370695
F39.305080076708997
tp5271
sS'38095'
p5272
(F-99.245779804327796
F48.685539969397396
tp5273
sS'29157'
p5274
(F-89.824442421089202
F37.707158314698802
tp5275
sS'38097'
p5276
(F-97.161610441659207
F47.454180169313901
tp5277
sS'30063'
p5278
(F-113.92371718998101
F47.036529313475803
tp5279
sS'38091'
p5280
(F-97.724698977678003
F47.456166841103901
tp5281
sS'30065'
p5282
(F-108.39816467321501
F46.496619228366001
tp5283
sS'38093'
p5284
(F-98.958837435585707
F46.979242284258099
tp5285
sS'30067'
p5286
(F-110.526439420993
F45.488401366863101
tp5287
sS'48085'
p5288
(F-96.572389140732398
F33.187928517607801
tp5289
sS'38099'
p5290
(F-97.721345109613196
F48.369464870782402
tp5291
sS'29159'
p5292
(F-93.285099681270495
F38.728293755754798
tp5293
sS'47171'
p5294
(F-82.432239030737307
F36.110822572196703
tp5295
sS'39173'
p5296
(F-83.623000027150297
F41.361680791377502
tp5297
sS'47173'
p5298
(F-83.837533188404194
F36.287871640857901
tp5299
sS'45071'
p5300
(F-81.600130197372295
F34.289812994178099
tp5301
sS'47177'
p5302
(F-85.778510040978404
F35.6786982592116
tp5303
sS'47179'
p5304
(F-82.497441362842395
F36.293292612481302
tp5305
sS'13121'
p5306
(F-84.4669980611786
F33.790272345675099
tp5307
sS'29217'
p5308
(F-94.342441016535005
F37.850579205409403
tp5309
sS'51005'
p5310
(F-80.006792816093395
F37.787507810657999
tp5311
sS'47027'
p5312
(F-85.543906013882903
F36.551141398379002
tp5313
sS'47085'
p5314
(F-87.775639726061897
F36.040809906511598
tp5315
sS'47087'
p5316
(F-85.673160506004194
F36.359210022241797
tp5317
sS'47081'
p5318
(F-87.473344779323696
F35.803229256561899
tp5319
sS'47083'
p5320
(F-87.717039534684403
F36.285961580324802
tp5321
sS'47089'
p5322
(F-83.446300732177093
F36.050985567117301
tp5323
sS'55141'
p5324
(F-90.0415673460721
F44.455345229591899
tp5325
sS'19083'
p5326
(F-93.240401535555094
F42.383877934396303
tp5327
sS'19081'
p5328
(F-93.734282307675898
F43.081910288342698
tp5329
sS'16059'
p5330
(F-113.9332961425
F44.943310566787098
tp5331
sS'42037'
p5332
(F-76.405194610574895
F41.048698914080099
tp5333
sS'22111'
p5334
(F-92.374789945955399
F32.831845502570403
tp5335
sS'19115'
p5336
(F-91.259611703920697
F41.218523421403503
tp5337
sS'16055'
p5338
(F-116.700005841655
F47.674535527923702
tp5339
sS'16057'
p5340
(F-116.71164690399
F46.8161569488989
tp5341
sS'16051'
p5342
(F-112.311232263479
F43.8201249960821
tp5343
sS'22119'
p5344
(F-93.334973777359195
F32.713469019006602
tp5345
sS'48375'
p5346
(F-101.893924815023
F35.401287396315702
tp5347
sS'51710'
p5348
(F-76.259014640555307
F36.894529461618397
tp5349
sS'18047'
p5350
(F-85.060143515673005
F39.414868500914103
tp5351
sS'48199'
p5352
(F-94.390212689906804
F30.332383560183501
tp5353
sS'51087'
p5354
(F-77.405824260451098
F37.537995563219802
tp5355
sS'39127'
p5356
(F-82.236131609710199
F39.737149161445203
tp5357
sS'51085'
p5358
(F-77.490868300503493
F37.760139274199901
tp5359
sS'39125'
p5360
(F-84.580209895911196
F41.116624374337903
tp5361
sS'51083'
p5362
(F-78.9366186640612
F36.766893720356201
tp5363
sS'39123'
p5364
(F-83.147183166463293
F41.535074361391999
tp5365
sS'51081'
p5366
(F-77.559026790450901
F36.676334150398702
tp5367
sS'39121'
p5368
(F-81.455573601340703
F39.765941506977803
tp5369
sS'48147'
p5370
(F-96.1068632438202
F33.593832002399502
tp5371
sS'31155'
p5372
(F-96.637379021199095
F41.226366207934603
tp5373
sS'51089'
p5374
(F-79.873671384309702
F36.682769690958501
tp5375
sS'26109'
p5376
(F-87.556617523407894
F45.580059761762499
tp5377
sS'25005'
p5378
(F-71.114763291244103
F41.797449466670699
tp5379
sS'25007'
p5380
(F-70.628024161104307
F41.387866018154
tp5381
sS'25001'
p5382
(F-70.291493198595603
F41.724178721604702
tp5383
sS'21019'
p5384
(F-82.687779339416707
F38.3595602071073
tp5385
sS'25003'
p5386
(F-73.206349041949096
F42.370703490726903
tp5387
sS'21017'
p5388
(F-84.217164205984304
F38.2067384509905
tp5389
sS'21015'
p5390
(F-84.728013712805705
F38.969956584090802
tp5391
sS'21013'
p5392
(F-83.674081675861004
F36.730647286701902
tp5393
sS'25009'
p5394
(F-70.9521879873774
F42.672989246820698
tp5395
sS'21011'
p5396
(F-83.742679656151495
F38.1449525942595
tp5397
sS'22063'
p5398
(F-90.727892392989602
F30.440148637648001
tp5399
sS'22061'
p5400
(F-92.664836151829803
F32.601616465603698
tp5401
sS'22067'
p5402
(F-91.801787601612403
F32.820215976341103
tp5403
sS'22065'
p5404
(F-91.245402939216802
F32.367269780789997
tp5405
sS'22069'
p5406
(F-93.096224818501
F31.723542376124101
tp5407
sS'46111'
p5408
(F-98.091351136942293
F44.023421486340197
tp5409
sS'06041'
p5410
(F-122.724072470004
F38.073861136925501
tp5411
sS'26107'
p5412
(F-85.324569992946905
F43.6408010586416
tp5413
sS'46115'
p5414
(F-98.346202543046601
F44.938023696313302
tp5415
sS'06045'
p5416
(F-123.39147296685699
F39.4402237341776
tp5417
sS'48389'
p5418
(F-103.692987124365
F31.323027172611202
tp5419
sS'46119'
p5420
(F-100.132191040694
F44.715571343811
tp5421
sS'06049'
p5422
(F-120.72494574214799
F41.589846883890601
tp5423
sS'41009'
p5424
(F-123.088043542477
F45.943763826104302
tp5425
sS'51660'
p5426
(F-78.873512120369696
F38.436156602599503
tp5427
sS'56033'
p5428
(F-106.87939919481001
F44.790032035442998
tp5429
sS'56031'
p5430
(F-104.96588247516701
F42.133137407108201
tp5431
sS'56037'
p5432
(F-108.879557833322
F41.6595317723447
tp5433
sS'56035'
p5434
(F-109.914709527027
F42.766898720349602
tp5435
sS'56039'
p5436
(F-110.589746891907
F43.934769814525303
tp5437
sS'21169'
p5438
(F-85.629227458236599
F36.990530948079602
tp5439
sS'32031'
p5440
(F-119.66425286567301
F40.665486341648901
tp5441
sS'32033'
p5442
(F-114.90154745941
F39.442118426412101
tp5443
sS'21163'
p5444
(F-86.216952429508495
F37.969623104461498
tp5445
sS'21161'
p5446
(F-83.824087090965804
F38.595186393876197
tp5447
sS'21167'
p5448
(F-84.874462637311396
F37.811032996259698
tp5449
sS'21165'
p5450
(F-83.598864014954003
F37.941388062504899
tp5451
sS'48195'
p5452
(F-101.354572399245
F36.277429429928297
tp5453
sS'49031'
p5454
(F-112.12732083361
F38.336658920599902
tp5455
sS'19179'
p5456
(F-92.409463552651502
F41.0305807240563
tp5457
sS'20177'
p5458
(F-95.756522330033107
F39.041508601755098
tp5459
sS'46029'
p5460
(F-97.188622096624499
F44.977855531402398
tp5461
sS'49039'
p5462
(F-111.576301072578
F39.373939866372602
tp5463
sS'42079'
p5464
(F-75.989007072066897
F41.177021367220803
tp5465
sS'49037'
p5466
(F-109.804539820573
F37.626014165299601
tp5467
sS'42077'
p5468
(F-75.592340942233207
F40.612708837862002
tp5469
sS'49035'
p5470
(F-111.92360287794899
F40.667324498931201
tp5471
sS'42075'
p5472
(F-76.457708720650501
F40.367227055185502
tp5473
sS'49033'
p5474
(F-111.24448630001
F41.632217535765797
tp5475
sS'42073'
p5476
(F-80.334226662137198
F40.991247052224402
tp5477
sS'46023'
p5478
(F-98.587899696339704
F43.207923880804501
tp5479
sS'42071'
p5480
(F-76.247724328260404
F40.042434027917999
tp5481
sS'48237'
p5482
(F-98.172472986399697
F33.233463219271599
tp5483
sS'20169'
p5484
(F-97.649953636374306
F38.783811650942098
tp5485
sS'40011'
p5486
(F-98.433441943227194
F35.875212977159201
tp5487
sS'48349'
p5488
(F-96.4724740061056
F32.046927519272302
tp5489
sS'20161'
p5490
(F-96.735179916992493
F39.296469488286498
tp5491
sS'20163'
p5492
(F-99.325016432739005
F39.350228279243701
tp5493
sS'48343'
p5494
(F-94.732636104775594
F33.113468497921303
tp5495
sS'20167'
p5496
(F-98.762390557289095
F38.914808730535199
tp5497
sS'19173'
p5498
(F-94.696397580279097
F40.737385588862203
tp5499
sS'17019'
p5500
(F-88.199200092530802
F40.140092108850602
tp5501
sS'20171'
p5502
(F-100.90686145589
F38.482176540340099
tp5503
sS'39163'
p5504
(F-82.485343242338899
F39.250973201268899
tp5505
sS'17013'
p5506
(F-90.667531328955604
F39.169243029509502
tp5507
sS'17011'
p5508
(F-89.528672763580005
F41.4041441502618
tp5509
sS'17017'
p5510
(F-90.247414395766299
F39.9735649491275
tp5511
sS'17015'
p5512
(F-89.934391306856597
F42.068687569168397
tp5513
sS'48193'
p5514
(F-98.110702033357299
F31.704816482180998
tp5515
sS'55035'
p5516
(F-91.285977270140506
F44.726779142328901
tp5517
sS'31033'
p5518
(F-102.994956595907
F41.2197688913134
tp5519
sS'17167'
p5520
(F-89.658876770180598
F39.758165619976801
tp5521
sS'19177'
p5522
(F-91.949978344137804
F40.753215142056398
tp5523
sS'38009'
p5524
(F-100.833317960301
F48.792180299734099
tp5525
sS'55033'
p5526
(F-91.896413857974593
F44.946562611764399
tp5527
sS'26005'
p5528
(F-85.8884388182951
F42.591273046756697
tp5529
sS'05065'
p5530
(F-91.913405598124498
F36.094870203577301
tp5531
sS'26007'
p5532
(F-83.626806665330605
F45.034748702820202
tp5533
sS'05067'
p5534
(F-91.214561082851702
F35.599278257938202
tp5535
sS'53005'
p5536
(F-119.51123402040101
F46.239792353561597
tp5537
sS'05061'
p5538
(F-93.993570754367198
F34.088916486588801
tp5539
sS'53007'
p5540
(F-120.618915107517
F47.869109472805803
tp5541
sS'05063'
p5542
(F-91.569708094172398
F35.741572994711703
tp5543
sS'53009'
p5544
(F-123.92781129742301
F48.049276050603297
tp5545
sS'39165'
p5546
(F-84.166766322102006
F39.427561910387297
tp5547
sS'26009'
p5548
(F-85.140239437241505
F44.999084444832903
tp5549
sS'05069'
p5550
(F-91.931515991773907
F34.268783894262597
tp5551
sS'48505'
p5552
(F-99.168646805911294
F27.000775686233599
tp5553
sS'45049'
p5554
(F-81.140695312592101
F32.776291380706198
tp5555
sS'48501'
p5556
(F-102.82777612261
F33.1730070627952
tp5557
sS'48503'
p5558
(F-98.687746787031102
F33.176633642558002
tp5559
sS'45043'
p5560
(F-79.332399722676399
F33.434248305632998
tp5561
sS'45041'
p5562
(F-79.702804971870506
F34.024391555914598
tp5563
sS'45047'
p5564
(F-82.125918802557706
F34.153814379559002
tp5565
sS'45045'
p5566
(F-82.370713190928697
F34.894377508977499
tp5567
sS'53023'
p5568
(F-117.54521735421901
F46.431621718431302
tp5569
sS'38001'
p5570
(F-102.528502779294
F46.096833959885799
tp5571
sS'37021'
p5572
(F-82.530104224478194
F35.611217326024303
tp5573
sS'33015'
p5574
(F-71.125362910430198
F42.987538884315001
tp5575
sS'37023'
p5576
(F-81.704708166418101
F35.749527969647403
tp5577
sS'33017'
p5578
(F-71.029418977468197
F43.297380040582198
tp5579
sS'37025'
p5580
(F-80.552059561154195
F35.386905947880102
tp5581
sS'13145'
p5582
(F-84.908892312537901
F32.7360395882191
tp5583
sS'37027'
p5584
(F-81.546526583194094
F35.952960189332103
tp5585
sS'33013'
p5586
(F-71.680166486893896
F43.297661919309498
tp5587
sS'37029'
p5588
(F-76.206412720720607
F36.387776887920602
tp5589
sS'13149'
p5590
(F-85.128336082273805
F33.297039418497199
tp5591
sS'01005'
p5592
(F-85.393211185117494
F31.869579549806399
tp5593
sS'33019'
p5594
(F-72.2223658384533
F43.361260087861702
tp5595
sS'01001'
p5596
(F-86.642744116962206
F32.534921203674003
tp5597
sS'48189'
p5598
(F-101.826884821429
F34.070505289111402
tp5599
sS'42105'
p5600
(F-77.895813110508101
F41.744927261306202
tp5601
sS'42103'
p5602
(F-75.033833679293707
F41.331993015962198
tp5603
sS'42101'
p5604
(F-75.133984049230605
F40.007618531660498
tp5605
sS'48181'
p5606
(F-96.677724316604298
F33.626775404505203
tp5607
sS'48183'
p5608
(F-94.816955331339898
F32.480467608928798
tp5609
sS'48185'
p5610
(F-95.985511974584696
F30.5434774508585
tp5611
sS'36043'
p5612
(F-74.962520122454706
F43.419713674014801
tp5613
sS'48167'
p5614
(F-95.048238129777005
F29.398703340842001
tp5615
sS'48165'
p5616
(F-102.635182609062
F32.740749247889397
tp5617
sS'48163'
p5618
(F-99.108204341284207
F28.867785397427902
tp5619
sS'48161'
p5620
(F-96.149083580506598
F31.7049044689069
tp5621
sS'38061'
p5622
(F-102.355660414122
F48.201328393004601
tp5623
sS'38063'
p5624
(F-98.192056408945703
F47.9217023621691
tp5625
sS'38065'
p5626
(F-101.340363049388
F47.1152725632178
tp5627
sS'38067'
p5628
(F-97.551847822253805
F48.767500068984702
tp5629
sS'20187'
p5630
(F-101.784217096295
F37.563005800455898
tp5631
sS'20185'
p5632
(F-98.717425938695698
F38.030981144120403
tp5633
sS'20183'
p5634
(F-98.785461763084101
F39.785161268471199
tp5635
sS'20181'
p5636
(F-101.71998273732
F39.351448518454198
tp5637
sS'20189'
p5638
(F-101.312057278922
F37.192340794297998
tp5639
sS'41037'
p5640
(F-120.387504982401
F42.793473395773603
tp5641
sS'40039'
p5642
(F-99.001492849668693
F35.638882770729801
tp5643
sS'41035'
p5644
(F-121.650066390769
F42.686256451738799
tp5645
sS'41033'
p5646
(F-123.555619906076
F42.365493818139399
tp5647
sS'13039'
p5648
(F-81.669983046941695
F30.930567795930301
tp5649
sS'41031'
p5650
(F-121.175431166184
F44.629436682381098
tp5651
sS'01133'
p5652
(F-87.373664143787494
F34.149197848224397
tp5653
sS'13037'
p5654
(F-84.624532745454104
F31.529222291905601
tp5655
sS'13031'
p5656
(F-81.743185443996595
F32.396806628588003
tp5657
sS'41039'
p5658
(F-122.847933546421
F43.938673796788798
tp5659
sS'13033'
p5660
(F-82.000900684631105
F33.061082359664503
tp5661
sS'18057'
p5662
(F-86.052026788443996
F40.072479267298199
tp5663
sS'18055'
p5664
(F-86.962044897202304
F39.036351012046801
tp5665
sS'48095'
p5666
(F-99.864029358425498
F31.326574564117799
tp5667
sS'18053'
p5668
(F-85.654714916567897
F40.515798880853197
tp5669
sS'18051'
p5670
(F-87.584620377045596
F38.3118837383645
tp5671
sS'18059'
p5672
(F-85.773245117014099
F39.823556092449799
tp5673
sS'31163'
p5674
(F-98.976204281363593
F41.220588188110497
tp5675
sS'29017'
p5676
(F-90.025925985268898
F37.322186526815202
tp5677
sS'28019'
p5678
(F-89.248380142875703
F33.347301313582498
tp5679
sS'29015'
p5680
(F-93.2879329465719
F38.294856581737797
tp5681
sS'29013'
p5682
(F-94.340023820177194
F38.257260160152697
tp5683
sS'29011'
p5684
(F-94.347125343779595
F37.502321426719597
tp5685
sS'28011'
p5686
(F-90.880368193559605
F33.795576982185601
tp5687
sS'28013'
p5688
(F-89.336454998841802
F33.936460240804003
tp5689
sS'28015'
p5690
(F-89.920184479413393
F33.448527872698101
tp5691
sS'29019'
p5692
(F-92.309677461514397
F38.990617872156299
tp5693
sS'28017'
p5694
(F-88.947857892775502
F33.920797473412797
tp5695
sS'37159'
p5696
(F-80.524637438488995
F35.639530013417001
tp5697
sS'08035'
p5698
(F-104.92955949672699
F39.329707933422398
tp5699
sS'08037'
p5700
(F-106.695367003716
F39.627849258872402
tp5701
sS'08031'
p5702
(F-104.87632561526
F39.7615123271218
tp5703
sS'08033'
p5704
(F-108.51738506772099
F37.751666388306198
tp5705
sS'37151'
p5706
(F-79.806159093337399
F35.710327767370103
tp5707
sS'37153'
p5708
(F-79.747832777895795
F35.005940932913298
tp5709
sS'37155'
p5710
(F-79.103564640864803
F34.640081927965099
tp5711
sS'08039'
p5712
(F-104.13594161675201
F39.2865555721229
tp5713
sS'37157'
p5714
(F-79.775140405232193
F36.396054260711999
tp5715
sS'18123'
p5716
(F-86.638028498334293
F38.079648860111298
tp5717
sS'18121'
p5718
(F-87.206374926241494
F39.773632223955097
tp5719
sS'18127'
p5720
(F-87.067292267633405
F41.460545899493603
tp5721
sS'18125'
p5722
(F-87.232163029017997
F38.398781836321298
tp5723
sS'51520'
p5724
(F-82.160852593667897
F36.617903867967101
tp5725
sS'18129'
p5726
(F-87.868390171782707
F38.021830445319701
tp5727
sS'55041'
p5728
(F-88.770421000401797
F45.667329892469098
tp5729
sS'29163'
p5730
(F-91.171368351410294
F39.3438289449957
tp5731
sS'30081'
p5732
(F-114.12068111743901
F46.081694031141701
tp5733
sS'29161'
p5734
(F-91.792337086056705
F37.877167067648898
tp5735
sS'38085'
p5736
(F-101.04041313474001
F46.1126619170632
tp5737
sS'29167'
p5738
(F-93.400531109537994
F37.616489540727898
tp5739
sS'38083'
p5740
(F-100.345676257202
F47.575410982704902
tp5741
sS'29165'
p5742
(F-94.773653086966505
F39.380464430831204
tp5743
sS'38081'
p5744
(F-97.630556384283395
F46.1078259330869
tp5745
sS'30095'
p5746
(F-109.395212556758
F45.669038088249003
tp5747
sS'29169'
p5748
(F-92.2076387572789
F37.824579822680299
tp5749
sS'48327'
p5750
(F-99.8205916712012
F30.889823443221299
tp5751
sS'30091'
p5752
(F-104.504673823479
F48.721233249738603
tp5753
sS'30093'
p5754
(F-112.65673470698501
F45.9024027964238
tp5755
sS'38089'
p5756
(F-102.655104699483
F46.810679727648797
tp5757
sS'47189'
p5758
(F-86.297727681028903
F36.154851366969602
tp5759
sS'48101'
p5760
(F-100.278792126886
F34.077643417487799
tp5761
sS'47185'
p5762
(F-85.455619377860103
F35.926671992913903
tp5763
sS'47187'
p5764
(F-86.898594570352401
F35.893777970451701
tp5765
sS'47181'
p5766
(F-87.788049130321895
F35.239910333802499
tp5767
sS'47183'
p5768
(F-88.717799896318496
F36.298257715352101
tp5769
sS'48451'
p5770
(F-100.462124608043
F31.4044490393395
tp5771
sS'31167'
p5772
(F-97.193911801375506
F41.9169351617115
tp5773
sS'48105'
p5774
(F-101.412049278064
F30.723089286378801
tp5775
sS'28161'
p5776
(F-89.707680480619004
F34.028160074994297
tp5777
sS'28163'
p5778
(F-90.396379287756403
F32.780364176022097
tp5779
sS'48107'
p5780
(F-101.29998657423501
F33.614664918048298
tp5781
sS'27159'
p5782
(F-94.969396606581498
F46.585763562156799
tp5783
sS'48031'
p5784
(F-98.3998800421856
F30.266357553248799
tp5785
sS'22101'
p5786
(F-91.443311177214596
F29.705040283161701
tp5787
sS'22103'
p5788
(F-89.958308488283194
F30.4102415144601
tp5789
sS'22105'
p5790
(F-90.405676182425594
F30.626631326125199
tp5791
sS'22107'
p5792
(F-91.3401021422209
F32.001709445274898
tp5793
sS'22109'
p5794
(F-90.867577408502299
F29.4165348214052
tp5795
sS'16045'
p5796
(F-116.397137066376
F44.061729868588998
tp5797
sS'16043'
p5798
(F-111.482001765191
F44.22885794191
tp5799
sS'16041'
p5800
(F-111.813222950485
F42.181234733313403
tp5801
sS'31165'
p5802
(F-103.758885287612
F42.4876458044671
tp5803
sS'51700'
p5804
(F-76.518517182184596
F37.105170246250502
tp5805
sS'44001'
p5806
(F-71.284080298706698
F41.717298952730097
tp5807
sS'27099'
p5808
(F-92.752526418202393
F43.671429429214598
tp5809
sS'39113'
p5810
(F-84.290679307565
F39.754578171272598
tp5811
sS'51091'
p5812
(F-79.568551458226196
F38.362321472857801
tp5813
sS'32510'
p5814
(F-119.747428008554
F39.151152309009497
tp5815
sS'51093'
p5816
(F-76.725834359127802
F36.8912911354331
tp5817
sS'39117'
p5818
(F-82.794077221593597
F40.5240793659408
tp5819
sS'51095'
p5820
(F-76.7787176905085
F37.328793254723202
tp5821
sS'39115'
p5822
(F-81.852674078546102
F39.620374907063997
tp5823
sS'51097'
p5824
(F-76.895271685159003
F37.718634226169499
tp5825
sS'51099'
p5826
(F-77.157260841341397
F38.273362635793902
tp5827
sS'39119'
p5828
(F-81.944369095400305
F39.9654427884048
tp5829
sS'27153'
p5830
(F-94.897584090055005
F46.070604199746001
tp5831
sS'21009'
p5832
(F-85.933664630835395
F36.965584319889402
tp5833
sS'21001'
p5834
(F-85.280631580378099
F37.104166983391003
tp5835
sS'21003'
p5836
(F-86.190416459509194
F36.751248520132997
tp5837
sS'21005'
p5838
(F-84.990992192962196
F38.003915875776499
tp5839
sS'21007'
p5840
(F-88.999258052064405
F37.058480104249199
tp5841
sS'48357'
p5842
(F-100.815663594214
F36.2783578002769
tp5843
sS'21047'
p5844
(F-87.490456462933295
F36.894171370442301
tp5845
sS'22079'
p5846
(F-92.533186852491795
F31.198625100329998
tp5847
sS'22075'
p5848
(F-89.609394346719199
F29.440193412942499
tp5849
sS'22077'
p5850
(F-91.6007888712344
F30.709379051306801
tp5851
sS'22071'
p5852
(F-89.928832315376795
F30.068679376254298
tp5853
sS'22073'
p5854
(F-92.154866295307997
F32.478320262870497
tp5855
sS'46102'
p5856
(F-102.551648366272
F43.335596346127701
tp5857
sS'46103'
p5858
(F-102.823842353803
F44.003766197156502
tp5859
sS'46101'
p5860
(F-96.670887659498703
F44.021966407062997
tp5861
sS'46107'
p5862
(F-99.957269313393098
F45.064507834304202
tp5863
sS'46105'
p5864
(F-102.475693011967
F45.490467651496402
tp5865
sS'06055'
p5866
(F-122.33051702541
F38.506485176591198
tp5867
sS'48341'
p5868
(F-101.89298714258
F35.837714548862998
tp5869
sS'06057'
p5870
(F-120.76846338707099
F39.301365041583203
tp5871
sS'06051'
p5872
(F-118.886841474112
F37.939088139948701
tp5873
sS'06053'
p5874
(F-121.239198258857
F36.217156332535403
tp5875
sS'27165'
p5876
(F-94.614079276190594
F43.978431353739602
tp5877
sS'53017'
p5878
(F-119.69173901168701
F47.736055788427002
tp5879
sS'27167'
p5880
(F-96.468327636239195
F46.357060989325099
tp5881
sS'27161'
p5882
(F-93.587269649925204
F44.022117671153097
tp5883
sS'27163'
p5884
(F-92.883934536981798
F45.038710118719798
tp5885
sS'27169'
p5886
(F-91.779157259011896
F43.986849957219597
tp5887
sS'21229'
p5888
(F-85.174774140749307
F37.753374211423498
tp5889
sS'21175'
p5890
(F-83.258882616069599
F37.9222882048483
tp5891
sS'21177'
p5892
(F-87.142032666559501
F37.215790719960602
tp5893
sS'56029'
p5894
(F-109.588501000195
F44.520572635716597
tp5895
sS'21173'
p5896
(F-83.913156273455002
F38.033526180587103
tp5897
sS'56025'
p5898
(F-106.798499980697
F42.962064937569998
tp5899
sS'56027'
p5900
(F-104.47539447606
F43.056423700576303
tp5901
sS'21179'
p5902
(F-85.465958109798606
F37.805153773250503
tp5903
sS'56023'
p5904
(F-110.656035254066
F42.264137949336501
tp5905
sS'32027'
p5906
(F-118.40439018000301
F40.440436529893297
tp5907
sS'32023'
p5908
(F-116.471901538015
F38.042265650542397
tp5909
sS'29175'
p5910
(F-92.497087017429607
F39.440129952023902
tp5911
sS'13153'
p5912
(F-83.666225791387603
F32.459010667928901
tp5913
sS'32029'
p5914
(F-119.52915752654501
F39.446534581366997
tp5915
sS'30085'
p5916
(F-105.016436165014
F48.2945204945852
tp5917
sS'28073'
p5918
(F-89.508677446814303
F31.205841793661701
tp5919
sS'49029'
p5920
(F-111.57315064884
F41.089315984053101
tp5921
sS'42049'
p5922
(F-80.032816115534402
F41.992590284585603
tp5923
sS'46039'
p5924
(F-96.668015750680496
F44.7600565296543
tp5925
sS'42043'
p5926
(F-76.779457445845694
F40.415450176148099
tp5927
sS'49021'
p5928
(F-113.289518612357
F37.8591723619977
tp5929
sS'42041'
p5930
(F-77.265531991087897
F40.163626094441
tp5931
sS'49023'
p5932
(F-112.784822743653
F39.702735446608401
tp5933
sS'42047'
p5934
(F-78.649138034261796
F41.425232678704901
tp5935
sS'49025'
p5936
(F-111.88783564424
F37.285070933964398
tp5937
sS'42045'
p5938
(F-75.399084788856797
F39.916697563622897
tp5939
sS'26165'
p5940
(F-85.578409115747604
F44.338337138167802
tp5941
sS'17027'
p5942
(F-89.422491053783105
F38.606441199451197
tp5943
sS'48379'
p5944
(F-95.793388683686103
F32.8703511214079
tp5945
sS'05129'
p5946
(F-92.699508324950301
F35.910900496734598
tp5947
sS'17021'
p5948
(F-89.277274390810703
F39.545800083918103
tp5949
sS'48373'
p5950
(F-94.830041366040504
F30.792689020561401
tp5951
sS'01011'
p5952
(F-85.715681825461104
F32.100528173534997
tp5953
sS'48371'
p5954
(F-102.723526198646
F30.781010349351401
tp5955
sS'48377'
p5956
(F-104.24051099260799
F29.999759127484399
tp5957
sS'17029'
p5958
(F-88.221796223036307
F39.520274683303903
tp5959
sS'01009'
p5960
(F-86.567376980991696
F33.980871734757699
tp5961
sS'13159'
p5962
(F-83.687971364006202
F33.316538362542097
tp5963
sS'51820'
p5964
(F-78.901191221920797
F38.067329821812102
tp5965
sS'41001'
p5966
(F-117.67522454395299
F44.7092534238787
tp5967
sS'42115'
p5968
(F-75.800702823909404
F41.821376311224199
tp5969
sS'08123'
p5970
(F-104.39245224431799
F40.554854774173002
tp5971
sS'36051'
p5972
(F-77.775494552214795
F42.728062308700402
tp5973
sS'05011'
p5974
(F-92.162387571835893
F33.4664158106538
tp5975
sS'26017'
p5976
(F-83.991710915660406
F43.708029449082197
tp5977
sS'05013'
p5978
(F-92.5030439183288
F33.558030843934802
tp5979
sS'26015'
p5980
(F-85.308958582194805
F42.5950384831403
tp5981
sS'05015'
p5982
(F-93.538238732145203
F36.3410142556829
tp5983
sS'26013'
p5984
(F-88.365180021033893
F46.662677270043901
tp5985
sS'05017'
p5986
(F-91.293969620123804
F33.267191857123599
tp5987
sS'53015'
p5988
(F-122.680796058607
F46.193249145623199
tp5989
sS'05019'
p5990
(F-93.176360538559805
F34.050965418484701
tp5991
sS'42111'
p5992
(F-79.028264245893695
F39.972468679378302
tp5993
sS'53019'
p5994
(F-118.51646253399601
F48.470127805025399
tp5995
sS'13259'
p5996
(F-84.8352170484292
F32.078489712068603
tp5997
sS'36055'
p5998
(F-77.696089557376993
F43.146445918651999
tp5999
sS'46063'
p6000
(F-103.49583612030401
F45.580324832214203
tp6001
sS'48197'
p6002
(F-99.745692042357604
F34.290245323541498
tp6003
sS'13255'
p6004
(F-84.284096458901303
F33.2608781720038
tp6005
sS'29221'
p6006
(F-90.877413856720807
F37.961684079598399
tp6007
sS'29223'
p6008
(F-90.461408764064601
F37.112652503458897
tp6009
sS'29225'
p6010
(F-92.875875208713794
F37.280897789465399
tp6011
sS'29227'
p6012
(F-94.422123209060899
F40.479101982107302
tp6013
sS'37033'
p6014
(F-79.333619056856804
F36.393307774370903
tp6015
sS'01039'
p6016
(F-86.4512710950968
F31.2484930813354
tp6017
sS'37031'
p6018
(F-76.671594665356196
F34.839589402499797
tp6019
sS'37037'
p6020
(F-79.255361524799
F35.702561870237297
tp6021
sS'37035'
p6022
(F-81.2144801923383
F35.662602645220197
tp6023
sS'01033'
p6024
(F-87.804926888975103
F34.7004703528467
tp6025
sS'42119'
p6026
(F-77.062207445829202
F40.962996588170498
tp6027
sS'01031'
p6028
(F-85.988153063938498
F31.402647674938098
tp6029
sS'37039'
p6030
(F-84.063486275786005
F35.1338680325387
tp6031
sS'01037'
p6032
(F-86.247652601374298
F32.936243320157402
tp6033
sS'01035'
p6034
(F-86.993673538061103
F31.429233909475801
tp6035
sS'48219'
p6036
(F-102.343189118929
F33.6076298323377
tp6037
sS'42133'
p6038
(F-76.726525715469705
F39.919964154901798
tp6039
sS'46069'
p6040
(F-99.487054855490996
F44.547311390599901
tp6041
sS'42131'
p6042
(F-76.016597597755094
F41.518364324940997
tp6043
sS'48191'
p6044
(F-100.681109056881
F34.530786015497
tp6045
sS'36031'
p6046
(F-73.772604145072904
F44.117190187574998
tp6047
sS'36033'
p6048
(F-74.3038350057396
F44.592860479909497
tp6049
sS'13253'
p6050
(F-84.868848749718595
F30.938778875739299
tp6051
sS'36035'
p6052
(F-74.422156496149398
F43.113835333646598
tp6053
sS'36037'
p6054
(F-78.193755084026805
F43.000937140063897
tp6055
sS'54099'
p6056
(F-82.426968482086906
F38.146002885311503
tp6057
sS'54093'
p6058
(F-79.564985155505994
F39.113592859126399
tp6059
sS'54091'
p6060
(F-80.046187880288201
F39.335978951498902
tp6061
sS'54097'
p6062
(F-80.233439410339599
F38.897843505153403
tp6063
sS'54095'
p6064
(F-80.884837305044499
F39.465276207501397
tp6065
sS'48153'
p6066
(F-101.30323487596699
F34.072427053883203
tp6067
sS'48151'
p6068
(F-100.40218603180401
F32.7428129941121
tp6069
sS'48157'
p6070
(F-95.770891991974096
F29.527501735201401
tp6071
sS'48155'
p6072
(F-99.778003627329696
F33.974586382913202
tp6073
sS'48405'
p6074
(F-94.168184490830498
F31.3942237527313
tp6075
sS'48407'
p6076
(F-95.166890372894002
F30.579530691918599
tp6077
sS'48401'
p6078
(F-94.761882026875796
F32.107722453635397
tp6079
sS'48403'
p6080
(F-93.851718248555699
F31.3432269890471
tp6081
sS'01107'
p6082
(F-88.088751320761205
F33.2807942438656
tp6083
sS'01105'
p6084
(F-87.2944068906843
F32.638462085290499
tp6085
sS'01103'
p6086
(F-86.852942958583995
F34.4534680610506
tp6087
sS'01101'
p6088
(F-86.207619268771793
F32.2202622038537
tp6089
sS'01109'
p6090
(F-85.940931183668994
F31.802731107465299
tp6091
sS'13049'
p6092
(F-82.137936368678794
F30.781723957017
tp6093
sS'41021'
p6094
(F-120.21091934240199
F45.378049254791001
tp6095
sS'48083'
p6096
(F-99.4536344173667
F31.773207883502
tp6097
sS'41023'
p6098
(F-119.007503569682
F44.490976608999198
tp6099
sS'45073'
p6100
(F-83.065835563647596
F34.753471932040704
tp6101
sS'41025'
p6102
(F-118.96783003224699
F43.063846326776599
tp6103
sS'48087'
p6104
(F-100.27001226484801
F34.964832379812499
tp6105
sS'41027'
p6106
(F-121.651155323419
F45.519174889935499
tp6107
sS'48089'
p6108
(F-96.526266759764894
F29.620822288669
tp6109
sS'41029'
p6110
(F-122.72850247340099
F42.432117766879998
tp6111
sS'13043'
p6112
(F-82.073661664534598
F32.403441345256802
tp6113
sS'13045'
p6114
(F-85.079769577853199
F33.5827854550651
tp6115
sS'45079'
p6116
(F-80.903053556774097
F34.021817975189201
tp6117
sS'18041'
p6118
(F-85.178763884091296
F39.640029077194299
tp6119
sS'18043'
p6120
(F-85.906907358271994
F38.319039534855001
tp6121
sS'18045'
p6122
(F-87.241972909246698
F40.120901215450303
tp6123
sS'19129'
p6124
(F-95.621322628270207
F41.033431649862202
tp6125
sS'18049'
p6126
(F-86.263537042660403
F41.046977625231598
tp6127
sS'18063'
p6128
(F-86.509970214734096
F39.769519909380897
tp6129
sS'55078'
p6130
(F-88.710019749138695
F45.004381354722298
tp6131
sS'29001'
p6132
(F-92.600719210729196
F40.190579113778902
tp6133
sS'29003'
p6134
(F-94.802068895764805
F39.983505453880603
tp6135
sS'29005'
p6136
(F-95.428087578125499
F40.430805162097201
tp6137
sS'29007'
p6138
(F-91.841568204881199
F39.215743260805098
tp6139
sS'29009'
p6140
(F-93.829058998045099
F36.709862605488098
tp6141
sS'08041'
p6142
(F-104.52547213806901
F38.8321074378552
tp6143
sS'29057'
p6144
(F-93.850253665512696
F37.432050999956402
tp6145
sS'08043'
p6146
(F-105.43966024929099
F38.472960349648702
tp6147
sS'37149'
p6148
(F-82.169626488883296
F35.279308707423702
tp6149
sS'08045'
p6150
(F-107.90408077230499
F39.599323554003803
tp6151
sS'08047'
p6152
(F-105.522516173014
F39.857560085091997
tp6153
sS'19121'
p6154
(F-94.015546210743906
F41.330711367235502
tp6155
sS'08049'
p6156
(F-106.118322709404
F40.102629845999303
tp6157
sS'37143'
p6158
(F-76.441224090086905
F36.205808037356803
tp6159
sS'37141'
p6160
(F-77.905571120203604
F34.524661894639998
tp6161
sS'37147'
p6162
(F-77.374636546997294
F35.593523058756404
tp6163
sS'37145'
p6164
(F-78.971724946206706
F36.390070848209902
tp6165
sS'19123'
p6166
(F-92.640910096211897
F41.335215838306702
tp6167
sS'31139'
p6168
(F-97.601300556563103
F42.264360780200398
tp6169
sS'38079'
p6170
(F-99.840966302907304
F48.772454293888103
tp6171
sS'31135'
p6172
(F-101.64980239408
F40.850977356051303
tp6173
sS'31137'
p6174
(F-99.414538039306393
F40.511113650742402
tp6175
sS'31131'
p6176
(F-96.134762642270701
F40.648499717387303
tp6177
sS'31133'
p6178
(F-96.237061722986695
F40.131463396662497
tp6179
sS'19125'
p6180
(F-93.0994461865386
F41.334443980420197
tp6181
sS'50019'
p6182
(F-72.243753513332095
F44.828794978583602
tp6183
sS'18135'
p6184
(F-85.011442737786794
F40.157587742067498
tp6185
sS'51017'
p6186
(F-79.741091047989698
F38.0587148995333
tp6187
sS'18131'
p6188
(F-86.698797386853499
F41.041853677475302
tp6189
sS'18133'
p6190
(F-86.844994341670997
F39.666279695860403
tp6191
sS'31173'
p6192
(F-96.544027760618206
F42.158201248825598
tp6193
sS'53059'
p6194
(F-121.915117845556
F46.0227414303044
tp6195
sS'40029'
p6196
(F-96.297824166803196
F34.588217248313498
tp6197
sS'29179'
p6198
(F-90.969099214862396
F37.362344316366297
tp6199
sS'30089'
p6200
(F-115.133232693176
F47.674795194262998
tp6201
sS'30087'
p6202
(F-106.730762587524
F46.229710646942202
tp6203
sS'29177'
p6204
(F-93.989914378484997
F39.352391853743299
tp6205
sS'29171'
p6206
(F-93.016167003505203
F40.478913077300298
tp6207
sS'29173'
p6208
(F-91.522030769912305
F39.5276827377795
tp6209
sS'35006'
p6210
(F-107.999663498782
F34.912602926823503
tp6211
sS'17119'
p6212
(F-89.9051324608388
F38.829870336949703
tp6213
sS'31175'
p6214
(F-98.981871909994595
F41.567324257627
tp6215
sS'27009'
p6216
(F-93.998839030815603
F45.699103065853997
tp6217
s.